(dp1
S'output'
p2
S"<type 'exceptions.NameError'> name 'personalizado' is not defined"
p3
sS'layer'
p4
S'C:\\Users\\Antonio\\Documents\\Servicio\\nuevo2\\web2py\\applications\\define_git\\views\\particular/relacion.html'
p5
sS'code'
p6
S'response.write(\'<!DOCTYPE html>\\n<!--[if (gt IE 9)|!(IE)]><!--> <html class="no-js" lang="\', escape=False)\nresponse.write(T.accepted_language or \'en\')\nresponse.write(\'"> <!--<![endif]-->\\n  <head>\\n    <meta charset="utf-8">\\n    <!-- www.phpied.com/conditional-comments-block-downloads/ -->\\n    <!-- Always force latest IE rendering engine\\n         (even in intranet) & Chrome Frame\\n         Remove this if you use the .htaccess -->\\n    <meta http-equiv="X-UA-Compatible" content="IE=edge\', escape=False)\nresponse.write(not request.is_local and \',chrome=1\' or \'\')\nresponse.write(\'">\\n    <!--  Mobile Viewport Fix\\n          j.mp/mobileviewport & davidbcalhoun.com/2010/viewport-metatag\\n          device-width: Occupy full width of the screen in its current orientation\\n          initial-scale = 1.0 retains dimensions instead of zooming out if page height > device height\\n          user-scalable = yes allows the user to zoom in -->\\n    <meta name="viewport" content="width=device-width, initial-scale=1.0">\\n    <title>\', escape=False)\nresponse.write(response.title or request.application)\nresponse.write(\'</title>\\n    <!-- http://dev.w3.org/html5/markup/meta.name.html -->\\n    <meta name="application-name" content="\', escape=False)\nresponse.write(request.application)\nresponse.write(\'">\\n    <!-- Speaking of Google, don\\\'t forget to set your site up:\\n         http://google.com/webmasters -->\\n    <meta name="google-site-verification" content="">\\n    <!-- include stylesheets -->\\n    <link rel="stylesheet" href="\', escape=False)\nresponse.write(URL(\'static\',\'css/bootstrap.min.css\'))\nresponse.write(\'"/>\\n    <link rel="stylesheet" href="\', escape=False)\nresponse.write(URL(\'static\',\'css/bootstrap-theme.min.css\'))\nresponse.write(\'"/>\\n    <link rel="stylesheet" href="\', escape=False)\nresponse.write(URL(\'static\',\'css/web2py-bootstrap3.css\'))\nresponse.write(\'"/>\\n    <link rel="shortcut icon" href="\', escape=False)\nresponse.write(URL(\'static\',\'images/favicon.ico\'))\nresponse.write(\'" type="image/x-icon">\\n    <link rel="apple-touch-icon" href="\', escape=False)\nresponse.write(URL(\'static\',\'images/favicon.png\'))\nresponse.write(\'">\\n    <!-- All JavaScript at the bottom, except for Modernizr which enables\\n         HTML5 elements & feature detects -->\\n    <script src="\', escape=False)\nresponse.write(URL(\'static\',\'js/modernizr-2.8.3.min.js\'))\nresponse.write(\'"></script>\\n    <!--[if lt IE 9]>\\n        <script src="\', escape=False)\nresponse.write(URL(\'static\',\'js/respond-1.4.2.min.js\'))\nresponse.write(\'"></script>\\n        <![endif]-->\\n    <!-- Favicons -->\\n    \', escape=False)\nresponse.write(\'<script type="text/javascript"><!--\\n    // These variables are used by the web2py_ajax_init function in web2py_ajax.js (which is loaded below).\\n    var w2p_ajax_confirm_message = "\', escape=False)\nresponse.write(T(\'Are you sure you want to delete this object?\'))\nresponse.write(\'";\\n    var w2p_ajax_disable_with_message = "\', escape=False)\nresponse.write(T(\'Working...\'))\nresponse.write(\'";\\n    var w2p_ajax_date_format = "\', escape=False)\nresponse.write(T(\'%Y-%m-%d\'))\nresponse.write(\'";\\n    var w2p_ajax_datetime_format = "\', escape=False)\nresponse.write(T(\'%Y-%m-%d %H:%M:%S\'))\nresponse.write(\'";\\n    var ajax_error_500 = \\\'\', escape=False)\nresponse.write(T.M(\'An error occured, please [[reload %s]] the page\') % URL(args=request.args, vars=request.get_vars))\nresponse.write("\'\\n    //--></script>\\n", escape=False)\nresponse.files.insert(0,URL(\'static\',\'js/jquery.js\'))\nresponse.files.insert(1,URL(\'static\',\'css/calendar.css\'))\nresponse.files.insert(2,URL(\'static\',\'js/calendar.js\'))\nresponse.files.insert(3,URL(\'static\',\'js/web2py.js\'))\nresponse.include_meta()\nresponse.include_files()\nresponse.write(\'\\n\', escape=False)\nresponse.write(\' <!-- this includes jquery.js, calendar.js/.css and web2py.js -->\\n    \', escape=False)\nresponse.write(\'\\n    \', escape=False)\n# using sidebars need to know what sidebar you want to use\nmc0 = \'col-md-12\'\nmc1 = \'col-md-9\'\nmc2 = \'col-md-6\'\nleft_sidebar_enabled = globals().get(\'left_sidebar_enabled\', False)\nright_sidebar_enabled = globals().get(\'right_sidebar_enabled\', False)\nmiddle_column = {0: mc0, 1: mc1, 2: mc2}[\n(left_sidebar_enabled and 1 or 0)+(right_sidebar_enabled and 1 or 0)]\nresponse.write(\'\\n  </head>\\n  <body>\\n    <!--[if lt IE 8]><p class="browserupgrade">You are using an <strong>outdated</strong> browser. Please <a href="http://browsehappy.com/">upgrade your browser</a> to improve your experience.</p><![endif]-->\\n    <div class="flash alert alert-dismissable">\', escape=False)\nresponse.write(response.flash or \'\')\nresponse.write(\'</div>\\n    <!-- Navbar ======================================= -->\\n    <nav class="navbar navbar-inverse navbar-fixed-top" role="navigation">\\n      <div class="container-fluid">\\n        <div class="navbar-header">\\n          <button type="button" class="navbar-toggle" data-toggle="collapse" data-target=".navbar-collapse">\\n            <span class="sr-only">Toggle navigation</span>\\n            <span class="icon-bar"></span>\\n            <span class="icon-bar"></span>\\n            <span class="icon-bar"></span>\\n          </button>\\n          \', escape=False)\nresponse.write(response.logo or \'\')\nresponse.write(\'\\n        </div>\\n        <div class="collapse navbar-collapse navbar-ex1-collapse">\\n          <ul class="nav navbar-nav navbar-right">\\n            \', escape=False)\nresponse.write(\'auth\' in globals() and auth.navbar(\'Welcome\',mode=\'dropdown\') or \'\')\nresponse.write(\'\\n          </ul>\\n          \', escape=False)\nif response.menu:\n    response.write(\'\\n          \', escape=False)\n    response.write(MENU(response.menu, _class=\'nav navbar-nav\',li_class=\'dropdown\',ul_class=\'dropdown-menu\'))\n    response.write(\'\\n          \', escape=False)\n    pass\nresponse.write(\'\\n        </div>\\n      </div>\\n    </nav>\\n    <!-- Masthead ===================================== -->    \\n    \', escape=False)\nresponse.write(\'\\n    \', escape=False)\nresponse.write(\'\\n    <!-- Main ========================================= -->\\n    <!-- Begin page content -->\\n    <div class="container-fluid">\\n      \', escape=False)\nif left_sidebar_enabled:\n    response.write(\'\\n        <div class="col-md-3 left-sidebar">\\n            \', escape=False)\n    response.write(\'\\n            <h3>Left Sidebar</h3>\\n            <p></p>\\n            \', escape=False)\n    response.write(\'\\n        </div>\\n      \', escape=False)\n    pass\nresponse.write(\'\\n\\n      <div class="\', escape=False)\nresponse.write(middle_column)\nresponse.write(\'">\\n        \', escape=False)\nresponse.write(\'\\n        \', escape=False)\nresponse.write(\'\\r\\n<h2>Term: \', escape=False)\nresponse.write(termino[\'ter\'])\nresponse.write(\'</h2>\\r\\n<hr>\\r\\n<script type="text/javascript">\\r\\n    var arrayhidden = [];\\r\\n    var grupos_historial = "";\\r\\n    function openWordnet() {\\r\\n        var wn = window.open("\', escape=False)\nresponse.write(URL(\'vistaTodos\'))\nresponse.write(\'?id=\', escape=False)\nresponse.write(termino[\'id\'])\nresponse.write(\'&ter=\', escape=False)\nresponse.write(termino[\'ter\'])\nresponse.write(\'", "_black", "width=800, height=400, scrollbars=1");\\r\\n   }\\r\\n    var grupos_historial = "";\\r\\n    function setHistorial(idGrupo, nombreGrupo) {\\r\\n        if(nombreGrupo == "No informativo")\\r\\n            grupos_historial = "";\\r\\n        if(document.getElementById("c" + idGrupo).checked)\\r\\n            grupos_historial += "grupos=" + idGrupo + "&";\\r\\n        else\\r\\n            grupos_historial = grupos_historial.replace("grupos=" + idGrupo + "&", "");\\r\\n        document.getElementById("grupos_hidden").value = grupos_historial + "c=\', escape=False)\nresponse.write(auth.user.id)\nresponse.write(\'";\\r\\n        ajax(\\\'\', escape=False)\nresponse.write(URL(r=request,f=\'getHistorialGrupos\'))\nresponse.write(\'?\\\' + document.getElementById("grupos_hidden").value,[\\\'grupos_hidden\\\'],\\\'historialGrupo\\\');\\r\\n    }\\r\\n    function setTexto(tipo) {\\r\\n        anterior = "";\\r\\n        if(document.getElementById("key").value != "No informativo")\\r\\n            anterior = document.getElementById("key").value;\\r\\n        if (tipo == "No informativo"){\\r\\n            document.getElementById("key").value = "No informativo";\\r\\n            $(\\\':checkbox[name=grupo]\\\').not(\\\':checked\\\').attr(\\\'disabled\\\', true);\\r\\n            checkCount = $(\\\':checked\\\').length;\\r\\n            if (checkCount == 0)\\r\\n                $(\\\':checkbox[name=grupo]:disabled\\\').attr(\\\'disabled\\\', false);\\r\\n            //document.getElementById("key").setAttribute("disabled", true);\\r\\n        } else {\\r\\n            document.getElementById("key").value = anterior;\\r\\n            //document.getElementById("key").setAttribute("disabled", false);\\r\\n        }\\r\\n    }\\r\\n    function openHistorial() {\\r\\n        if (document.getElementById("history").style.display == "none"){\\r\\n            document.getElementById("history").style.display = "inline";\\r\\n            document.getElementById("open").innerHTML = "<a href=\\\\"#\\\\" onclick=\\\\"openHistorial()\\\\">Hide keywords used by other users</a>";\\r\\n        }\\r\\n        else{\\r\\n            document.getElementById("history").style.display = "none";\\r\\n            document.getElementById("open").innerHTML = "<a href=\\\\"#\\\\" onclick=\\\\"openHistorial()\\\\">Show keywords used by other users</a>";\\r\\n        }\\r\\n    }\\r\\n    function gradoAppear(idGrupo) {\\r\\n        cbarray = document.getElementsByName("grupo");\\r\\n        if(document.getElementById("c" + idGrupo).checked && !cbarray[0].checked){\\r\\n            arrayhidden.push("t" + idGrupo);\\r\\n            if(arrayhidden.length > 0) {\\r\\n                var i = 0;\\r\\n                for (i = 0; i < arrayhidden.length; i++) {\\r\\n                    document.getElementById(arrayhidden[i]).style.display = "inline";\\r\\n                }\\r\\n            }\\r\\n        } else {\\r\\n            if(cbarray[0].checked){\\r\\n                arrayhidden = [];\\r\\n                for (var i = 1; i < cbarray.length; i++){\\r\\n                    cbarray[i].checked = false;\\r\\n                    document.getElementById("t" + cbarray[i].value).style.display = "none";\\r\\n                }\\r\\n            } else {\\r\\n                var index = arrayhidden.indexOf("t" + idGrupo);\\r\\n                if (index > -1) {\\r\\n                    document.getElementById(arrayhidden[index]).style.display = "none";\\r\\n                    arrayhidden.splice(index, 1);\\r\\n                }\\r\\n                /*if(arrayhidden.length == 1) {\\r\\n                    document.getElementById(arrayhidden[0]).style.display = "none";\\r\\n                }*/\\r\\n            }\\r\\n        }\\r\\n    }\\r\\n    function openHistorialGrupo() {\\r\\n        if (document.getElementById("historialGrupo").style.display == "none"){\\r\\n            document.getElementById("historialGrupo").style.display = "inline";\\r\\n            document.getElementById("open1").innerHTML = "<a href=\\\\"#\\\\" onclick=\\\\"openHistorialGrupo()\\\\">Hide definitions you have used in this group</a>";\\r\\n        }\\r\\n        else{\\r\\n            document.getElementById("historialGrupo").style.display = "none";\\r\\n            document.getElementById("open1").innerHTML = "<a href=\\\\"#\\\\" onclick=\\\\"openHistorialGrupo()\\\\">Show definitions you have used in this group (last 10)</a>";\\r\\n        }\\r\\n    }\\r\\n    function validarKeywords() {\\r\\n        definicion = document.getElementById("definicion_texto").innerHTML.replace(/&nbsp;/g, " ").toLowerCase();\\r\\n        aux = document.getElementById("key").value.toLowerCase().split(\\\',\\\');\\r\\n        flag = true\\r\\n        var i = 0\\r\\n        while (flag && i < aux.length){\\r\\n            if (aux[i][0] == \\\' \\\')\\r\\n                aux[i] = aux[i].substr(1);\\r\\n            if (definicion.indexOf(aux[i]) != -1)\\r\\n                flag = true;\\r\\n            else\\r\\n                flag = false;\\r\\n            i += 1;\\r\\n        }\\r\\n        if (document.getElementById("key").value == "No informativo")\\r\\n            flag = true;\\r\\n        if(!flag)\\r\\n            alert("Keyword(s) not withint the definition");\\r\\n        return flag;\\r\\n    }\\r\\n    function openPorcentaje() {\\r\\n        cbarray = document.getElementsByName("porgrupos");\\r\\n        for(var i = 0; i < cbarray.length; i++){\\r\\n            if (cbarray[i].style.display == "none"){\\r\\n                cbarray[i].style.display = "inline";\\r\\n                document.getElementById("open3").innerHTML = "<a href=\\\\"#\\\\" onclick=\\\\"openPorcentaje()\\\\">Hide percentages</a>";\\r\\n            }\\r\\n            else{\\r\\n                cbarray[i].style.display = "none";\\r\\n                document.getElementById("open3").innerHTML = "<a href=\\\\"#\\\\" onclick=\\\\"openPorcentaje()\\\\">Show usage percentage of each group (remeber to use your own criteria)</a>";\\r\\n            }\\r\\n        }\\r\\n    }\\r\\n    function subir(){\\r\\n        if(validarGrado() && validarKeywords())\\r\\n            document.getElementById("relacion_form").submit();\\r\\n    }\\r\\n    function validateAlpha(idGrupo){\\r\\n        var textInput = document.getElementById("g" + idGrupo).value;\\r\\n        textInput = textInput.replace(/[^0-9]/g, "");\\r\\n        document.getElementById("g" + idGrupo).value = textInput;\\r\\n    }\\r\\n    function validarGrado(){\\r\\n        cbarray = document.getElementsByName("grupo");\\r\\n        grado = 0;\\r\\n        flag = false;\\r\\n        if($(":checkbox[name=grupo]:checked").length > 1) {\\r\\n            for (var i = 0; i < cbarray.length; i++){\\r\\n                if(cbarray[i].checked)\\r\\n                    grado += parseInt(document.getElementById(\\\'g\\\' + cbarray[i].value).value);\\r\\n            }\\r\\n        }\\r\\n        if($(":checkbox[name=grupo]:checked").length == 1 || grado == 100)\\r\\n            flag = true;\\r\\n        else\\r\\n            alert("Error: Make sure to select at least 1 group or the certainty index equals 100");\\r\\n        return flag;\\r\\n    }\\r\\n</script>\\r\\n<form id="relacion_form" method="post" action="\', escape=False)\nresponse.write(URL(\'unir\'))\nresponse.write(\'" >\\r\\n    <p id="definicion_texto"><strong>Definition: </strong>\', escape=False)\nresponse.write(definicion[\'defi\'])\nresponse.write(\'</p>\\r\\n    <hr>\\r\\n    <div class="row">\\r\\n        <div class="col-md-4">\\r\\n    <p><strong>Select the semantic field to which it belongs to:</strong></p>\\r\\n    <input value="\', escape=False)\nresponse.write(definicion[\'id\'])\nresponse.write(\'" type="hidden" name="definicion" />\\r\\n    <input value="\', escape=False)\nresponse.write(termino[\'id\'])\nresponse.write(\'" type="hidden" name="termi" />\\r\\n    <input value="" type="hidden" id="grupos_hidden" />\\r\\n\\r\\n    \', escape=False)\nfor grupo in grupos:\n    response.write(\'\\r\\n        <p><input value="\', escape=False)\n    response.write(grupo[\'id\'])\n    response.write(\'" id="c\', escape=False)\n    response.write(grupo[\'id\'])\n    response.write(\'" type="checkbox" name="grupo" onclick="setHistorial(\\\'\', escape=False)\n    response.write(grupo[\'id\'])\n    response.write("\', \'", escape=False)\n    response.write(grupo[\'grup\'])\n    response.write("\');gradoAppear(\'", escape=False)\n    response.write(grupo[\'id\'])\n    response.write("\');setTexto(\'", escape=False)\n    response.write(grupo[\'grup\'])\n    response.write(\'\\\');" />\\r\\n            \', escape=False)\n    if \'PGL-\' in grupo[\'grup\']:\n        personalizado = db(db.claves.usuario_id == auth.user.id & db.claves.grupo_id == grupo[\'id\']).select()\n        if len(personalizado) == 0:\n            response.write(\'\\r\\n                        \', escape=False)\n            response.write(db(db.claves.grupo_id == grupo[\'id\']).select()[0][\'nombre\'])\n            response.write(\'\\r\\n                    \', escape=False)\n            pass\n        response.write(\'\\r\\n            \', escape=False)\n    else:\n        response.write(\'\\r\\n                \', escape=False)\n        response.write(personalizado[0][\'nombre\'])\n        response.write(\'\\r\\n            \', escape=False)\n        pass\n    response.write(\' <p id="t\', escape=False)\n    response.write(grupo[\'id\'])\n    response.write(\'" style="display:none">Grado de certeza<input type="text" id="g\', escape=False)\n    response.write(grupo[\'id\'])\n    response.write(\'" name="grado" onKeyUp="validateAlpha(\\\'\', escape=False)\n    response.write(grupo[\'id\'])\n    response.write(\'\\\')" /></p><p id="pgrupos" name="porgrupos" style="display:none">\', escape=False)\n    if grupo[\'id\'] in porcentaje.keys():\n        response.write(\'Usage percentage by other users: \', escape=False)\n        response.write((float)((porcentaje[grupo[\'id\']]*100) / (total_usuarios)))\n    else:\n        response.write(\' \', escape=False)\n        pass\n    response.write(" hasn\'t been used</p></p>\\r\\n    ", escape=False)\n    pass\nresponse.write(\'\\r\\n        </div>\\r\\n<div class="col-md-4">\\r\\n<p><strong>Options:</strong>\\r\\n<p><a href="#" onclick="openWordnet()">Create groups</a></p>\\r\\n<p id="open3"><a href="#" onclick="openPorcentaje()">Show usage percentage of each group (remeber to use your own criteria)</a></p>\\r\\n<p id="open"><a href="#" onclick="openHistorial()">Show keywords used by other users</a></p>\\r\\n<p id="history" style="display:none">\\r\\n    \', escape=False)\nif len(historial) > 0:\n    response.write(\'\\r\\n    Keywords used by other users:<br>\\r\\n        \', escape=False)\n    for historia in historial:\n        response.write(\'\\r\\n            \', escape=False)\n        response.write(historia)\n        response.write(\'<br>\\r\\n        \', escape=False)\n        pass\n    response.write(\'\\r\\n    \', escape=False)\nelse:\n    response.write(\'\\r\\n        Nobody has classified this definition yet.\\r\\n    \', escape=False)\n    pass\nresponse.write(\'\\r\\n</p>\\r\\n<p id="open1"><a href="#" onclick="openHistorialGrupo()">Show definitions used in this group (last 10)</a></p>\\r\\n<p id="historialGrupo" style="display:none">\\r\\n    Select a group\\r\\n</p>\\r\\n</div>\\r\\n</div>\\r\\n<hr>\\r\\n<p><strong>Palabras clave:</strong> <input value="" type="text" id="key" name="keyword" style="width: 400px !important;"/></p>\\r\\n\', escape=False)\nif len(grupos) != 0:\n    response.write(\'\\r\\n        <p><input value="Submit" type="button" onclick="subir();" /></p>\\r\\n    \', escape=False)\n    pass\nresponse.write(\'\\r\\n</form>\\r\\n\', escape=False)\nresponse.write(\'\\n        \', escape=False)\nresponse.write(\'\\n      </div>\\n\\n      \', escape=False)\nif right_sidebar_enabled:\n    response.write(\'\\n        <div class="col-md-3">\\n            \', escape=False)\n    response.write(\'\\n            <h3>Right Sidebar</h3>\\n            <p></p>\\n            \', escape=False)\n    response.write(\'\\n        </div>\\n      \', escape=False)\n    pass\nresponse.write(\'\\n\\n    </div>\\n\\n    \', escape=False)\nresponse.write(\' <!-- this is default footer -->      \\n    <footer class="footer">\\n      <div class="container-fluid">\\n        <div class="copyright pull-left">\', escape=False)\nresponse.write(T(\'Copyright\'))\nresponse.write(\' &#169; \', escape=False)\nresponse.write(request.now.year)\nresponse.write(\'</div>\\n          <div id="poweredBy" class="pull-right">\\n            \', escape=False)\nresponse.write(T(\'Powered by\'))\nresponse.write(\'\\n            <a href="http://www.web2py.com/">web2py</a>\\n          </div>\\n      </div>\\n    </footer>\\n    \', escape=False)\nresponse.write(\'\\n    <!-- The javascript =============================== -->\\n    <script src="\', escape=False)\nresponse.write(URL(\'static\',\'js/bootstrap.min.js\'))\nresponse.write(\'"></script>\\n    <script src="\', escape=False)\nresponse.write(URL(\'static\',\'js/web2py-bootstrap3.js\'))\nresponse.write(\'"></script>\\n    \', escape=False)\nresponse.write(\'\\n    \', escape=False)\nif response.google_analytics_id:\n    response.write(\'\\n    <!-- Analytics ==================================== -->\\n    <script src="\', escape=False)\n    response.write(URL(\'static\',\'js/analytics.min.js\'))\n    response.write(\'"></script>\\n    <script type="text/javascript">\\n      analytics.initialize({\\n      \\\'Google Analytics\\\':{trackingId:\\\'\', escape=False)\n    response.write(response.google_analytics_id)\n    response.write("\'}\\n      });\\n    </script>\\n    ", escape=False)\n    pass\nresponse.write(\'\\n    <!-- Share ============================y============ -->\\n    <script src="\', escape=False)\nresponse.write(URL(\'static\',\'js/share.js\',vars=dict(static=URL(\'static\',\'images\'))))\nresponse.write(\'"></script>\\n  </body>\\n</html>\\n\', escape=False)'
p7
sS'snapshot'
p8
(dp9
S'exception'
p10
(dp11
S'__hash__'
p12
S"<method-wrapper '__hash__' of exceptions.NameError object>"
p13
sS'__setattr__'
p14
S"<method-wrapper '__setattr__' of exceptions.NameError object>"
p15
sS'__reduce_ex__'
p16
S'<built-in method __reduce_ex__ of exceptions.NameError object>'
p17
sS'__getslice__'
p18
S"<method-wrapper '__getslice__' of exceptions.NameError object>"
p19
sS'__getitem__'
p20
S"<method-wrapper '__getitem__' of exceptions.NameError object>"
p21
sS'__setstate__'
p22
S'<built-in method __setstate__ of exceptions.NameError object>'
p23
sS'__reduce__'
p24
S'<built-in method __reduce__ of exceptions.NameError object>'
p25
sS'__str__'
p26
S"<method-wrapper '__str__' of exceptions.NameError object>"
p27
sS'__format__'
p28
S'<built-in method __format__ of exceptions.NameError object>'
p29
sS'__getattribute__'
p30
S"<method-wrapper '__getattribute__' of exceptions.NameError object>"
p31
sS'__class__'
p32
S"<type 'exceptions.NameError'>"
p33
sS'__unicode__'
p34
S'<built-in method __unicode__ of exceptions.NameError object>'
p35
sS'__delattr__'
p36
S"<method-wrapper '__delattr__' of exceptions.NameError object>"
p37
sS'__subclasshook__'
p38
S'<built-in method __subclasshook__ of type object>'
p39
sS'__repr__'
p40
S"<method-wrapper '__repr__' of exceptions.NameError object>"
p41
sS'args'
p42
S'("name \'personalizado\' is not defined",)'
p43
sS'__dict__'
p44
S'{}'
p45
sS'__sizeof__'
p46
S'<built-in method __sizeof__ of exceptions.NameError object>'
p47
sS'__doc__'
p48
S"'Name not found globally.'"
p49
sS'__init__'
p50
S"<method-wrapper '__init__' of exceptions.NameError object>"
p51
sS'__new__'
p52
S'<built-in method __new__ of type object>'
p53
ssS'evalue'
p54
S"name 'personalizado' is not defined"
p55
sS'request'
p56
cgluon.html
XML_unpickle
p57
(S'sRa\x00\x00<div><table><tr><td style="font-weight:bold;vertical-align:top;">ajax</td><td style="vertical-align:top;">:</td><td><div>False</div></td></tr><tr><td style="font-weight:bold;vertical-align:top;">application</td><td style="vertical-align:top;">:</td><td><div>define_git</div></td></tr><tr><td style="font-weight:bold;vertical-align:top;">args</td><td style="vertical-align:top;">:</td><td><div><table></table></div></td></tr><tr><td style="font-weight:bold;vertical-align:top;">cid</td><td style="vertical-align:top;">:</td><td><div>None</div></td></tr><tr><td style="font-weight:bold;vertical-align:top;">client</td><td style="vertical-align:top;">:</td><td><div>127.0.0.1</div></td></tr><tr><td style="font-weight:bold;vertical-align:top;">controller</td><td style="vertical-align:top;">:</td><td><div>particular</div></td></tr><tr><td style="font-weight:bold;vertical-align:top;">cookies</td><td style="vertical-align:top;">:</td><td><div><table><tr><td style="font-weight:bold;vertical-align:top;">session_id_admin</td><td style="vertical-align:top;">:</td><td><div>127.0.0.1-335c851b-d472-40cb-9b42-ce432fb40788<table><tr><td style="font-weight:bold;vertical-align:top;">comment</td><td style="vertical-align:top;">:</td><td><div></div></td></tr><tr><td style="font-weight:bold;vertical-align:top;">domain</td><td style="vertical-align:top;">:</td><td><div></div></td></tr><tr><td style="font-weight:bold;vertical-align:top;">expires</td><td style="vertical-align:top;">:</td><td><div></div></td></tr><tr><td style="font-weight:bold;vertical-align:top;">httponly</td><td style="vertical-align:top;">:</td><td><div></div></td></tr><tr><td style="font-weight:bold;vertical-align:top;">max-age</td><td style="vertical-align:top;">:</td><td><div></div></td></tr><tr><td style="font-weight:bold;vertical-align:top;">path</td><td style="vertical-align:top;">:</td><td><div></div></td></tr><tr><td style="font-weight:bold;vertical-align:top;">secure</td><td style="vertical-align:top;">:</td><td><div></div></td></tr><tr><td style="font-weight:bold;vertical-align:top;">version</td><td style="vertical-align:top;">:</td><td><div></div></td></tr></table></div></td></tr><tr><td style="font-weight:bold;vertical-align:top;">session_id_define_git</td><td style="vertical-align:top;">:</td><td><div>127.0.0.1-bbef36d1-d8df-4ddf-8aa6-8cca246b7fd5<table><tr><td style="font-weight:bold;vertical-align:top;">comment</td><td style="vertical-align:top;">:</td><td><div></div></td></tr><tr><td style="font-weight:bold;vertical-align:top;">domain</td><td style="vertical-align:top;">:</td><td><div></div></td></tr><tr><td style="font-weight:bold;vertical-align:top;">expires</td><td style="vertical-align:top;">:</td><td><div></div></td></tr><tr><td style="font-weight:bold;vertical-align:top;">httponly</td><td style="vertical-align:top;">:</td><td><div></div></td></tr><tr><td style="font-weight:bold;vertical-align:top;">max-age</td><td style="vertical-align:top;">:</td><td><div></div></td></tr><tr><td style="font-weight:bold;vertical-align:top;">path</td><td style="vertical-align:top;">:</td><td><div></div></td></tr><tr><td style="font-weight:bold;vertical-align:top;">secure</td><td style="vertical-align:top;">:</td><td><div></div></td></tr><tr><td style="font-weight:bold;vertical-align:top;">version</td><td style="vertical-align:top;">:</td><td><div></div></td></tr></table></div></td></tr><tr><td style="font-weight:bold;vertical-align:top;">session_id_welcome</td><td style="vertical-align:top;">:</td><td><div>127.0.0.1-d81092bc-5deb-4727-b6c6-0fa92624ddd0<table><tr><td style="font-weight:bold;vertical-align:top;">comment</td><td style="vertical-align:top;">:</td><td><div></div></td></tr><tr><td style="font-weight:bold;vertical-align:top;">domain</td><td style="vertical-align:top;">:</td><td><div></div></td></tr><tr><td style="font-weight:bold;vertical-align:top;">expires</td><td style="vertical-align:top;">:</td><td><div></div></td></tr><tr><td style="font-weight:bold;vertical-align:top;">httponly</td><td style="vertical-align:top;">:</td><td><div></div></td></tr><tr><td style="font-weight:bold;vertical-align:top;">max-age</td><td style="vertical-align:top;">:</td><td><div></div></td></tr><tr><td style="font-weight:bold;vertical-align:top;">path</td><td style="vertical-align:top;">:</td><td><div></div></td></tr><tr><td style="font-weight:bold;vertical-align:top;">secure</td><td style="vertical-align:top;">:</td><td><div></div></td></tr><tr><td style="font-weight:bold;vertical-align:top;">version</td><td style="vertical-align:top;">:</td><td><div></div></td></tr></table></div></td></tr></table></div></td></tr><tr><td style="font-weight:bold;vertical-align:top;">env</td><td style="vertical-align:top;">:</td><td><div><table><tr><td style="font-weight:bold;vertical-align:top;">HTTP_ACCEPT</td><td style="vertical-align:top;">:</td><td><div>text/html,application/xhtml+xml,application/xml;q=0.9,*/*;q=0.8</div></td></tr><tr><td style="font-weight:bold;vertical-align:top;">HTTP_ACCEPT_ENCODING</td><td style="vertical-align:top;">:</td><td><div>gzip, deflate</div></td></tr><tr><td style="font-weight:bold;vertical-align:top;">HTTP_ACCEPT_LANGUAGE</td><td style="vertical-align:top;">:</td><td><div>es-MX,es-ES;q=0.8,en-US;q=0.7,es-AR;q=0.5,es;q=0.3,en;q=0.2</div></td></tr><tr><td style="font-weight:bold;vertical-align:top;">HTTP_CACHE_CONTROL</td><td style="vertical-align:top;">:</td><td><div>max-age=0</div></td></tr><tr><td style="font-weight:bold;vertical-align:top;">HTTP_CONNECTION</td><td style="vertical-align:top;">:</td><td><div>keep-alive</div></td></tr><tr><td style="font-weight:bold;vertical-align:top;">HTTP_COOKIE</td><td style="vertical-align:top;">:</td><td><div>session_id_welcome=127.0.0.1-d81092bc-5deb-4727-b6c6-0fa92624ddd0; session_id_admin=127.0.0.1-335c851b-d472-40cb-9b42-ce432fb40788; session_id_define_git=127.0.0.1-bbef36d1-d8df-4ddf-8aa6-8cca246b7fd5</div></td></tr><tr><td style="font-weight:bold;vertical-align:top;">HTTP_HOST</td><td style="vertical-align:top;">:</td><td><div>127.0.0.1:8000</div></td></tr><tr><td style="font-weight:bold;vertical-align:top;">HTTP_REFERER</td><td style="vertical-align:top;">:</td><td><div>http://127.0.0.1:8000/define_git/default/user/login?_next=/define_git/particular/inicio</div></td></tr><tr><td style="font-weight:bold;vertical-align:top;">HTTP_USER_AGENT</td><td style="vertical-align:top;">:</td><td><div>Mozilla/5.0 (Windows NT 6.1; rv:43.0) Gecko/20100101 Firefox/43.0</div></td></tr><tr><td style="font-weight:bold;vertical-align:top;">PATH_INFO</td><td style="vertical-align:top;">:</td><td><div>/define_git/particular/relacion</div></td></tr><tr><td style="font-weight:bold;vertical-align:top;">QUERY_STRING</td><td style="vertical-align:top;">:</td><td><div>rd=1</div></td></tr><tr><td style="font-weight:bold;vertical-align:top;">REMOTE_ADDR</td><td style="vertical-align:top;">:</td><td><div>127.0.0.1</div></td></tr><tr><td style="font-weight:bold;vertical-align:top;">REMOTE_PORT</td><td style="vertical-align:top;">:</td><td><div>49490</div></td></tr><tr><td style="font-weight:bold;vertical-align:top;">REQUEST_METHOD</td><td style="vertical-align:top;">:</td><td><div>GET</div></td></tr><tr><td style="font-weight:bold;vertical-align:top;">SCRIPT_NAME</td><td style="vertical-align:top;">:</td><td><div></div></td></tr><tr><td style="font-weight:bold;vertical-align:top;">SERVER_NAME</td><td style="vertical-align:top;">:</td><td><div>Antonio-PC</div></td></tr><tr><td style="font-weight:bold;vertical-align:top;">SERVER_PORT</td><td style="vertical-align:top;">:</td><td><div>8000</div></td></tr><tr><td style="font-weight:bold;vertical-align:top;">SERVER_PROTOCOL</td><td style="vertical-align:top;">:</td><td><div>HTTP/1.1</div></td></tr><tr><td style="font-weight:bold;vertical-align:top;">SERVER_SOFTWARE</td><td style="vertical-align:top;">:</td><td><div>Rocket 1.2.6</div></td></tr><tr><td style="font-weight:bold;vertical-align:top;">app_folders</td><td style="vertical-align:top;">:</td><td><div>set([&#x27;C:\\\\Users\\\\Antonio\\\\Documents\\\\Servicio\\\\nuevo2\\\\web2py\\\\applications\\\\welcome\\\\&#x27;, &#x27;C:\\\\Users\\\\Antonio\\\\Documents\\\\Servicio\\\\nuevo2\\\\web2py\\\\applications\\\\admin\\\\&#x27;, &#x27;C:\\\\Users\\\\Antonio\\\\Documents\\\\Servicio\\\\nuevo2\\\\web2py\\\\applications\\\\define_git\\\\&#x27;])</div></td></tr><tr><td style="font-weight:bold;vertical-align:top;">applications_parent</td><td style="vertical-align:top;">:</td><td><div>C:\\Users\\Antonio\\Documents\\Servicio\\nuevo2\\web2py</div></td></tr><tr><td style="font-weight:bold;vertical-align:top;">cmd_args</td><td style="vertical-align:top;">:</td><td><div><table></table></div></td></tr><tr><td style="font-weight:bold;vertical-align:top;">cmd_options</td><td style="vertical-align:top;">:</td><td><div>&lt;Values at 0x2733238: {&#x27;verbose&#x27;: False, &#x27;ip&#x27;: &#x27;127.0.0.1&#x27;, &#x27;debuglevel&#x27;: 30, &#x27;with_scheduler&#x27;: False, &#x27;ips&#x27;: [&#x27;fe80::c19a:2dcb:509a:1544%16&#x27;, &#x27;fe80::700f:f26a:3942:deab%17&#x27;, &#x27;192.168.50.1&#x27;, &#x27;192.168.0.101&#x27;, &#x27;fe80::d8a1:5c7c:68b4:6917%14&#x27;, &#x27;192.168.80.1&#x27;], &#x27;shutdown_timeout&#x27;: 5, &#x27;taskbar&#x27;: False, &#x27;with_coverage&#x27;: False, &#x27;scheduler_groups&#x27;: None, &#x27;port&#x27;: 8000, &#x27;maxthreads&#x27;: None, &#x27;softcron&#x27;: False, &#x27;server_name&#x27;: &#x27;Antonio-PC&#x27;, &#x27;bpython&#x27;: False, &#x27;nogui&#x27;: False, &#x27;pid_filename&#x27;: &#x27;httpserver.pid&#x27;, &#x27;print_errors&#x27;: False, &#x27;extcron&#x27;: False, &#x27;runcron&#x27;: False, &#x27;run_system_tests&#x27;: False, &#x27;test&#x27;: None, &#x27;folder&#x27;: &#x27;C:\\\\Users\\\\Antonio\\\\Documents\\\\Servicio\\\\nuevo2\\\\web2py&#x27;, &#x27;config&#x27;: &#x27;&#x27;, &#x27;minthreads&#x27;: None, &#x27;shell&#x27;: None, &#x27;run&#x27;: &#x27;&#x27;, &#x27;log_filename&#x27;: &#x27;httpserver.log&#x27;, &#x27;profiler_dir&#x27;: None, &#x27;args&#x27;: [&#x27;&#x27;], &#x27;socket_timeout&#x27;: 5, &#x27;ssl_ca_certificate&#x27;: None, &#x27;scheduler&#x27;: None, &#x27;interfaces&#x27;: None, &#x27;ssl_private_key&#x27;: &#x27;&#x27;, &#x27;gae&#x27;: None, &#x27;password&#x27;: &#x27;&lt;ask&gt;&#x27;, &#x27;request_queue_size&#x27;: 5, &#x27;ssl_certificate&#x27;: &#x27;&#x27;, &#x27;cronjob&#x27;: False, &#x27;numthreads&#x27;: None, &#x27;quiet&#x27;: False, &#x27;import_models&#x27;: False, &#x27;timeout&#x27;: 10, &#x27;plain&#x27;: False, &#x27;nobanner&#x27;: False}&gt;</div></td></tr><tr><td style="font-weight:bold;vertical-align:top;">db_sessions</td><td style="vertical-align:top;">:</td><td><div>set([])</div></td></tr><tr><td style="font-weight:bold;vertical-align:top;">debugging</td><td style="vertical-align:top;">:</td><td><div>True</div></td></tr><tr><td style="font-weight:bold;vertical-align:top;">gluon_parent</td><td style="vertical-align:top;">:</td><td><div>C:\\Users\\Antonio\\Documents\\Servicio\\nuevo2\\web2py</div></td></tr><tr><td style="font-weight:bold;vertical-align:top;">http_accept</td><td style="vertical-align:top;">:</td><td><div>text/html,application/xhtml+xml,application/xml;q=0.9,*/*;q=0.8</div></td></tr><tr><td style="font-weight:bold;vertical-align:top;">http_accept_encoding</td><td style="vertical-align:top;">:</td><td><div>gzip, deflate</div></td></tr><tr><td style="font-weight:bold;vertical-align:top;">http_accept_language</td><td style="vertical-align:top;">:</td><td><div>es-MX,es-ES;q=0.8,en-US;q=0.7,es-AR;q=0.5,es;q=0.3,en;q=0.2</div></td></tr><tr><td style="font-weight:bold;vertical-align:top;">http_cache_control</td><td style="vertical-align:top;">:</td><td><div>max-age=0</div></td></tr><tr><td style="font-weight:bold;vertical-align:top;">http_connection</td><td style="vertical-align:top;">:</td><td><div>keep-alive</div></td></tr><tr><td style="font-weight:bold;vertical-align:top;">http_cookie</td><td style="vertical-align:top;">:</td><td><div>session_id_welcome=127.0.0.1-d81092bc-5deb-4727-b6c6-0fa92624ddd0; session_id_admin=127.0.0.1-335c851b-d472-40cb-9b42-ce432fb40788; session_id_define_git=127.0.0.1-bbef36d1-d8df-4ddf-8aa6-8cca246b7fd5</div></td></tr><tr><td style="font-weight:bold;vertical-align:top;">http_host</td><td style="vertical-align:top;">:</td><td><div>127.0.0.1:8000</div></td></tr><tr><td style="font-weight:bold;vertical-align:top;">http_referer</td><td style="vertical-align:top;">:</td><td><div>http://127.0.0.1:8000/define_git/default/user/login?_next=/define_git/particular/inicio</div></td></tr><tr><td style="font-weight:bold;vertical-align:top;">http_user_agent</td><td style="vertical-align:top;">:</td><td><div>Mozilla/5.0 (Windows NT 6.1; rv:43.0) Gecko/20100101 Firefox/43.0</div></td></tr><tr><td style="font-weight:bold;vertical-align:top;">is_jython</td><td style="vertical-align:top;">:</td><td><div>False</div></td></tr><tr><td style="font-weight:bold;vertical-align:top;">is_pypy</td><td style="vertical-align:top;">:</td><td><div>False</div></td></tr><tr><td style="font-weight:bold;vertical-align:top;">is_source</td><td style="vertical-align:top;">:</td><td><div>True</div></td></tr><tr><td style="font-weight:bold;vertical-align:top;">local_hosts</td><td style="vertical-align:top;">:</td><td><div><table><tr><td><div>fe80::c19a:2dcb:509a:1544%16</div></td></tr><tr><td><div>Antonio-PC</div></td></tr><tr><td><div>fe80::700f:f26a:3942:deab%17</div></td></tr><tr><td><div>::ffff:127.0.0.1</div></td></tr><tr><td><div>::1</div></td></tr><tr><td><div>192.168.50.1</div></td></tr><tr><td><div>192.168.0.101</div></td></tr><tr><td><div>192.168.80.1</div></td></tr><tr><td><div>fe80::d8a1:5c7c:68b4:6917%14</div></td></tr><tr><td><div>127.0.0.1</div></td></tr></table></div></td></tr><tr><td style="font-weight:bold;vertical-align:top;">path_info</td><td style="vertical-align:top;">:</td><td><div>/define_git/particular/relacion</div></td></tr><tr><td style="font-weight:bold;vertical-align:top;">query_string</td><td style="vertical-align:top;">:</td><td><div>rd=1</div></td></tr><tr><td style="font-weight:bold;vertical-align:top;">remote_addr</td><td style="vertical-align:top;">:</td><td><div>127.0.0.1</div></td></tr><tr><td style="font-weight:bold;vertical-align:top;">remote_port</td><td style="vertical-align:top;">:</td><td><div>49490</div></td></tr><tr><td style="font-weight:bold;vertical-align:top;">request_method</td><td style="vertical-align:top;">:</td><td><div>GET</div></td></tr><tr><td style="font-weight:bold;vertical-align:top;">request_uri</td><td style="vertical-align:top;">:</td><td><div>/define_git/particular/relacion?rd=1</div></td></tr><tr><td style="font-weight:bold;vertical-align:top;">script_name</td><td style="vertical-align:top;">:</td><td><div></div></td></tr><tr><td style="font-weight:bold;vertical-align:top;">server_name</td><td style="vertical-align:top;">:</td><td><div>Antonio-PC</div></td></tr><tr><td style="font-weight:bold;vertical-align:top;">server_port</td><td style="vertical-align:top;">:</td><td><div>8000</div></td></tr><tr><td style="font-weight:bold;vertical-align:top;">server_protocol</td><td style="vertical-align:top;">:</td><td><div>HTTP/1.1</div></td></tr><tr><td style="font-weight:bold;vertical-align:top;">server_software</td><td style="vertical-align:top;">:</td><td><div>Rocket 1.2.6</div></td></tr><tr><td style="font-weight:bold;vertical-align:top;">web2py_path</td><td style="vertical-align:top;">:</td><td><div>C:\\Users\\Antonio\\Documents\\Servicio\\nuevo2\\web2py</div></td></tr><tr><td style="font-weight:bold;vertical-align:top;">web2py_version</td><td style="vertical-align:top;">:</td><td><div>2.11.2-stable+timestamp.2015.05.30.11.29.46</div></td></tr><tr><td style="font-weight:bold;vertical-align:top;">wsgi.errors</td><td style="vertical-align:top;">:</td><td><div>&lt;open file &#x27;&lt;stderr&gt;&#x27;, mode &#x27;w&#x27; at 0x0126D0D0&gt;</div></td></tr><tr><td style="font-weight:bold;vertical-align:top;">wsgi.file_wrapper</td><td style="vertical-align:top;">:</td><td><div>&lt;class wsgiref.util.FileWrapper at 0x01EF6FB8&gt;</div></td></tr><tr><td style="font-weight:bold;vertical-align:top;">wsgi.input</td><td style="vertical-align:top;">:</td><td><div>&lt;socket._fileobject object at 0x07B0AB30&gt;</div></td></tr><tr><td style="font-weight:bold;vertical-align:top;">wsgi.multiprocess</td><td style="vertical-align:top;">:</td><td><div>False</div></td></tr><tr><td style="font-weight:bold;vertical-align:top;">wsgi.multithread</td><td style="vertical-align:top;">:</td><td><div>True</div></td></tr><tr><td style="font-weight:bold;vertical-align:top;">wsgi.run_once</td><td style="vertical-align:top;">:</td><td><div>False</div></td></tr><tr><td style="font-weight:bold;vertical-align:top;">wsgi.url_scheme</td><td style="vertical-align:top;">:</td><td><div>http</div></td></tr><tr><td style="font-weight:bold;vertical-align:top;">wsgi.version</td><td style="vertical-align:top;">:</td><td><div><table><tr><td><div>1</div></td></tr><tr><td><div>0</div></td></tr></table></div></td></tr><tr><td style="font-weight:bold;vertical-align:top;">wsgi_errors</td><td style="vertical-align:top;">:</td><td><div>&lt;open file &#x27;&lt;stderr&gt;&#x27;, mode &#x27;w&#x27; at 0x0126D0D0&gt;</div></td></tr><tr><td style="font-weight:bold;vertical-align:top;">wsgi_file_wrapper</td><td style="vertical-align:top;">:</td><td><div>&lt;class wsgiref.util.FileWrapper at 0x01EF6FB8&gt;</div></td></tr><tr><td style="font-weight:bold;vertical-align:top;">wsgi_input</td><td style="vertical-align:top;">:</td><td><div>&lt;socket._fileobject object at 0x07B0AB30&gt;</div></td></tr><tr><td style="font-weight:bold;vertical-align:top;">wsgi_multiprocess</td><td style="vertical-align:top;">:</td><td><div>False</div></td></tr><tr><td style="font-weight:bold;vertical-align:top;">wsgi_multithread</td><td style="vertical-align:top;">:</td><td><div>True</div></td></tr><tr><td style="font-weight:bold;vertical-align:top;">wsgi_run_once</td><td style="vertical-align:top;">:</td><td><div>False</div></td></tr><tr><td style="font-weight:bold;vertical-align:top;">wsgi_url_scheme</td><td style="vertical-align:top;">:</td><td><div>http</div></td></tr><tr><td style="font-weight:bold;vertical-align:top;">wsgi_version</td><td style="vertical-align:top;">:</td><td><div><table><tr><td><div>1</div></td></tr><tr><td><div>0</div></td></tr></table></div></td></tr></table></div></td></tr><tr><td style="font-weight:bold;vertical-align:top;">extension</td><td style="vertical-align:top;">:</td><td><div>html</div></td></tr><tr><td style="font-weight:bold;vertical-align:top;">folder</td><td style="vertical-align:top;">:</td><td><div>C:\\Users\\Antonio\\Documents\\Servicio\\nuevo2\\web2py\\applications\\define_git\\</div></td></tr><tr><td style="font-weight:bold;vertical-align:top;">function</td><td style="vertical-align:top;">:</td><td><div>relacion</div></td></tr><tr><td style="font-weight:bold;vertical-align:top;">global_settings</td><td style="vertical-align:top;">:</td><td><div><table><tr><td style="font-weight:bold;vertical-align:top;">app_folders</td><td style="vertical-align:top;">:</td><td><div>set([&#x27;C:\\\\Users\\\\Antonio\\\\Documents\\\\Servicio\\\\nuevo2\\\\web2py\\\\applications\\\\welcome\\\\&#x27;, &#x27;C:\\\\Users\\\\Antonio\\\\Documents\\\\Servicio\\\\nuevo2\\\\web2py\\\\applications\\\\admin\\\\&#x27;, &#x27;C:\\\\Users\\\\Antonio\\\\Documents\\\\Servicio\\\\nuevo2\\\\web2py\\\\applications\\\\define_git\\\\&#x27;])</div></td></tr><tr><td style="font-weight:bold;vertical-align:top;">applications_parent</td><td style="vertical-align:top;">:</td><td><div>C:\\Users\\Antonio\\Documents\\Servicio\\nuevo2\\web2py</div></td></tr><tr><td style="font-weight:bold;vertical-align:top;">cmd_args</td><td style="vertical-align:top;">:</td><td><div><table></table></div></td></tr><tr><td style="font-weight:bold;vertical-align:top;">cmd_options</td><td style="vertical-align:top;">:</td><td><div>&lt;Values at 0x2733238: {&#x27;verbose&#x27;: False, &#x27;ip&#x27;: &#x27;127.0.0.1&#x27;, &#x27;debuglevel&#x27;: 30, &#x27;with_scheduler&#x27;: False, &#x27;ips&#x27;: [&#x27;fe80::c19a:2dcb:509a:1544%16&#x27;, &#x27;fe80::700f:f26a:3942:deab%17&#x27;, &#x27;192.168.50.1&#x27;, &#x27;192.168.0.101&#x27;, &#x27;fe80::d8a1:5c7c:68b4:6917%14&#x27;, &#x27;192.168.80.1&#x27;], &#x27;shutdown_timeout&#x27;: 5, &#x27;taskbar&#x27;: False, &#x27;with_coverage&#x27;: False, &#x27;scheduler_groups&#x27;: None, &#x27;port&#x27;: 8000, &#x27;maxthreads&#x27;: None, &#x27;softcron&#x27;: False, &#x27;server_name&#x27;: &#x27;Antonio-PC&#x27;, &#x27;bpython&#x27;: False, &#x27;nogui&#x27;: False, &#x27;pid_filename&#x27;: &#x27;httpserver.pid&#x27;, &#x27;print_errors&#x27;: False, &#x27;extcron&#x27;: False, &#x27;runcron&#x27;: False, &#x27;run_system_tests&#x27;: False, &#x27;test&#x27;: None, &#x27;folder&#x27;: &#x27;C:\\\\Users\\\\Antonio\\\\Documents\\\\Servicio\\\\nuevo2\\\\web2py&#x27;, &#x27;config&#x27;: &#x27;&#x27;, &#x27;minthreads&#x27;: None, &#x27;shell&#x27;: None, &#x27;run&#x27;: &#x27;&#x27;, &#x27;log_filename&#x27;: &#x27;httpserver.log&#x27;, &#x27;profiler_dir&#x27;: None, &#x27;args&#x27;: [&#x27;&#x27;], &#x27;socket_timeout&#x27;: 5, &#x27;ssl_ca_certificate&#x27;: None, &#x27;scheduler&#x27;: None, &#x27;interfaces&#x27;: None, &#x27;ssl_private_key&#x27;: &#x27;&#x27;, &#x27;gae&#x27;: None, &#x27;password&#x27;: &#x27;&lt;ask&gt;&#x27;, &#x27;request_queue_size&#x27;: 5, &#x27;ssl_certificate&#x27;: &#x27;&#x27;, &#x27;cronjob&#x27;: False, &#x27;numthreads&#x27;: None, &#x27;quiet&#x27;: False, &#x27;import_models&#x27;: False, &#x27;timeout&#x27;: 10, &#x27;plain&#x27;: False, &#x27;nobanner&#x27;: False}&gt;</div></td></tr><tr><td style="font-weight:bold;vertical-align:top;">db_sessions</td><td style="vertical-align:top;">:</td><td><div>set([])</div></td></tr><tr><td style="font-weight:bold;vertical-align:top;">debugging</td><td style="vertical-align:top;">:</td><td><div>True</div></td></tr><tr><td style="font-weight:bold;vertical-align:top;">gluon_parent</td><td style="vertical-align:top;">:</td><td><div>C:\\Users\\Antonio\\Documents\\Servicio\\nuevo2\\web2py</div></td></tr><tr><td style="font-weight:bold;vertical-align:top;">is_jython</td><td style="vertical-align:top;">:</td><td><div>False</div></td></tr><tr><td style="font-weight:bold;vertical-align:top;">is_pypy</td><td style="vertical-align:top;">:</td><td><div>False</div></td></tr><tr><td style="font-weight:bold;vertical-align:top;">is_source</td><td style="vertical-align:top;">:</td><td><div>True</div></td></tr><tr><td style="font-weight:bold;vertical-align:top;">local_hosts</td><td style="vertical-align:top;">:</td><td><div><table><tr><td><div>fe80::c19a:2dcb:509a:1544%16</div></td></tr><tr><td><div>Antonio-PC</div></td></tr><tr><td><div>fe80::700f:f26a:3942:deab%17</div></td></tr><tr><td><div>::ffff:127.0.0.1</div></td></tr><tr><td><div>::1</div></td></tr><tr><td><div>192.168.50.1</div></td></tr><tr><td><div>192.168.0.101</div></td></tr><tr><td><div>192.168.80.1</div></td></tr><tr><td><div>fe80::d8a1:5c7c:68b4:6917%14</div></td></tr><tr><td><div>127.0.0.1</div></td></tr></table></div></td></tr><tr><td style="font-weight:bold;vertical-align:top;">web2py_version</td><td style="vertical-align:top;">:</td><td><div>2.11.2-stable+timestamp.2015.05.30.11.29.46</div></td></tr></table></div></td></tr><tr><td style="font-weight:bold;vertical-align:top;">is_https</td><td style="vertical-align:top;">:</td><td><div>False</div></td></tr><tr><td style="font-weight:bold;vertical-align:top;">is_local</td><td style="vertical-align:top;">:</td><td><div>True</div></td></tr><tr><td style="font-weight:bold;vertical-align:top;">is_restful</td><td style="vertical-align:top;">:</td><td><div>False</div></td></tr><tr><td style="font-weight:bold;vertical-align:top;">is_sheduler</td><td style="vertical-align:top;">:</td><td><div>None</div></td></tr><tr><td style="font-weight:bold;vertical-align:top;">is_shell</td><td style="vertical-align:top;">:</td><td><div>None</div></td></tr><tr><td style="font-weight:bold;vertical-align:top;">now</td><td style="vertical-align:top;">:</td><td><div>datetime.datetime(2016, 4, 22, 15, 6, 5, 527000)</div></td></tr><tr><td style="font-weight:bold;vertical-align:top;">raw_args</td><td style="vertical-align:top;">:</td><td><div></div></td></tr><tr><td style="font-weight:bold;vertical-align:top;">raw_extension</td><td style="vertical-align:top;">:</td><td><div>None</div></td></tr><tr><td style="font-weight:bold;vertical-align:top;">url</td><td style="vertical-align:top;">:</td><td><div>/define_git/particular/relacion</div></td></tr><tr><td style="font-weight:bold;vertical-align:top;">utcnow</td><td style="vertical-align:top;">:</td><td><div>datetime.datetime(2016, 4, 22, 20, 6, 5, 527000)</div></td></tr><tr><td style="font-weight:bold;vertical-align:top;">wsgi</td><td style="vertical-align:top;">:</td><td><div>&lt;gluon.main.LazyWSGI object at 0x08AE97B0&gt;</div></td></tr></table></div>'
tRp58
sS'frames'
p59
(lp60
(dp61
S'file'
p62
S'C:\\Users\\Antonio\\Documents\\Servicio\\nuevo2\\web2py\\gluon\\restricted.py'
p63
sS'dump'
p64
(dp65
S'environment'
p66
S"{'A': <class 'gluon.html.A'>, 'ANY_OF': <class 'gluon.validators.ANY_OF'>, 'ASSIGNJS': <function ASSIGNJS>, 'AppConfig': <function AppConfig>, 'Auth': <class 'gluon.tools.Auth'>, 'B': <class 'gluon.html.B'>, 'BEAUTIFY': <class 'gluon.html.BEAUTIFY'>, 'BODY': <class 'gluon.html.BODY'>, 'BR': <class 'gluon.html.BR'>, 'BUTTON': <class 'gluon.html.BUTTON'>, ...}"
p67
sS'ccode'
p68
S'<code object <module> at 08B0B2A8, file "C:\\User...fine_git\\views\\particular/relacion.html", line 1>'
p69
ssS'lnum'
p70
I227
sS'lines'
p71
(dp72
I224
S'            ccode = code'
p73
sI225
S'        else:'
p74
sI226
S'            ccode = compile2(code, layer)'
p75
sI227
S'        exec ccode in environment'
p76
sI228
S'    except HTTP:'
p77
sI229
S'        raise'
p78
sI230
S'    except RestrictedError:'
p79
sI231
S'        # do not encapsulate (obfuscate) the original RestrictedError'
p80
sI222
S'    try:'
p81
sI223
S'        if isinstance(code, types.CodeType):'
p82
ssS'call'
p83
S'(code=\'response.write(\\\'<!DOCTYPE html>\\\\n<!--[if (gt IE ..."></script>\\\\n  </body>\\\\n</html>\\\\n\\\', escape=False)\', environment={\'A\': <class \'gluon.html.A\'>, \'ANY_OF\': <class \'gluon.validators.ANY_OF\'>, \'ASSIGNJS\': <function ASSIGNJS>, \'AppConfig\': <function AppConfig>, \'Auth\': <class \'gluon.tools.Auth\'>, \'B\': <class \'gluon.html.B\'>, \'BEAUTIFY\': <class \'gluon.html.BEAUTIFY\'>, \'BODY\': <class \'gluon.html.BODY\'>, \'BR\': <class \'gluon.html.BR\'>, \'BUTTON\': <class \'gluon.html.BUTTON\'>, ...}, layer=r\'C:\\Users\\Antonio\\Documents\\Servicio\\nuevo2\\web2p...cations\\define_git\\views\\particular/relacion.html\')'
p84
sS'func'
p85
S'restricted'
p86
sa(dp87
g62
S'C:\\Users\\Antonio\\Documents\\Servicio\\nuevo2\\web2py\\applications\\define_git\\views\\particular\\relacion.html'
p88
sg64
(dp89
S'document'
p90
S'undefined'
p91
ssg70
I121
sg71
(dp92
I128
S'    response.write(\'" name="grado" onKeyUp="validateAlpha(\\\'\', escape=False)'
p93
sI129
S"    response.write(grupo['id'])"
p94
sI130
S'    response.write(\'\\\')" /></p><p id="pgrupos" name="porgrupos" style="display:none">\', escape=False)'
p95
sI131
S"    if grupo['id'] in porcentaje.keys():"
p96
sI112
S"        personalizado = db(db.claves.usuario_id == auth.user.id & db.claves.grupo_id == grupo['id']).select()"
p97
sI113
S'        if len(personalizado) == 0:'
p98
sI114
S"            response.write('\\r\\n                        ', escape=False)"
p99
sI115
S"            response.write(db(db.claves.grupo_id == grupo['id']).select()[0]['nombre'])"
p100
sI116
S"            response.write('\\r\\n                    ', escape=False)"
p101
sI117
S'            pass'
p102
sI118
S"        response.write('\\r\\n            ', escape=False)"
p103
sI119
S'    else:'
p104
sI120
S"        response.write('\\r\\n                ', escape=False)"
p105
sI121
S"        response.write(personalizado[0]['nombre'])"
p106
sI122
S"        response.write('\\r\\n            ', escape=False)"
p107
sI123
S'        pass'
p108
sI124
S'    response.write(\' <p id="t\', escape=False)'
p109
sI125
S"    response.write(grupo['id'])"
p110
sI126
S'    response.write(\'" style="display:none">Grado de certeza<input type="text" id="g\', escape=False)'
p111
sI127
S"    response.write(grupo['id'])"
p112
ssg83
S'()'
p113
sg85
S'<module>'
p114
sasS'pyver'
p115
S'Python 2.7.7: c:\\python27\\python.exe (prefix: c:\\python27)'
p116
sS'session'
p117
g57
(S's\x1a\n\x00\x00<div><table><tr><td style="font-weight:bold;vertical-align:top;">auth</td><td style="vertical-align:top;">:</td><td><div><table><tr><td style="font-weight:bold;vertical-align:top;">expiration</td><td style="vertical-align:top;">:</td><td><div>3600</div></td></tr><tr><td style="font-weight:bold;vertical-align:top;">hmac_key</td><td style="vertical-align:top;">:</td><td><div>c8dc5108-2604-48a2-bde6-b5faffb35300</div></td></tr><tr><td style="font-weight:bold;vertical-align:top;">last_visit</td><td style="vertical-align:top;">:</td><td><div>datetime.datetime(2016, 4, 22, 15, 1, 34, 621000)</div></td></tr><tr><td style="font-weight:bold;vertical-align:top;">remember_me</td><td style="vertical-align:top;">:</td><td><div>False</div></td></tr><tr><td style="font-weight:bold;vertical-align:top;">user</td><td style="vertical-align:top;">:</td><td><div><table><tr><td style="font-weight:bold;vertical-align:top;">email</td><td style="vertical-align:top;">:</td><td><div>antonio.nunez.311@gmail.com</div></td></tr><tr><td style="font-weight:bold;vertical-align:top;">first_name</td><td style="vertical-align:top;">:</td><td><div>Antonio</div></td></tr><tr><td style="font-weight:bold;vertical-align:top;">id</td><td style="vertical-align:top;">:</td><td><div>10L</div></td></tr><tr><td style="font-weight:bold;vertical-align:top;">last_name</td><td style="vertical-align:top;">:</td><td><div>Nu\xc3\xb1ez</div></td></tr><tr><td style="font-weight:bold;vertical-align:top;">registration_id</td><td style="vertical-align:top;">:</td><td><div></div></td></tr><tr><td style="font-weight:bold;vertical-align:top;">registration_key</td><td style="vertical-align:top;">:</td><td><div></div></td></tr><tr><td style="font-weight:bold;vertical-align:top;">reset_password_key</td><td style="vertical-align:top;">:</td><td><div></div></td></tr></table></div></td></tr><tr><td style="font-weight:bold;vertical-align:top;">user_groups</td><td style="vertical-align:top;">:</td><td><div><table><tr><td style="font-weight:bold;vertical-align:top;">10</td><td style="vertical-align:top;">:</td><td><div>Administrador</div></td></tr></table></div></td></tr></table></div></td></tr><tr><td style="font-weight:bold;vertical-align:top;">flash</td><td style="vertical-align:top;">:</td><td><div>None</div></td></tr><tr><td style="font-weight:bold;vertical-align:top;">last_orderby</td><td style="vertical-align:top;">:</td><td><div>None</div></td></tr><tr><td style="font-weight:bold;vertical-align:top;">last_query</td><td style="vertical-align:top;">:</td><td><div>db.claves.id&gt;0</div></td></tr></table></div>'
tRp118
sS'etype'
p119
S"<type 'exceptions.NameError'>"
p120
sS'date'
p121
S'Fri Apr 22 15:06:05 2016'
p122
sS'response'
p123
g57
(S's2\x1b\x00\x00<div><table><tr><td style="font-weight:bold;vertical-align:top;">body</td><td style="vertical-align:top;">:</td><td><div>&lt;cStringIO.StringO object at 0x088FED60&gt;</div></td></tr><tr><td style="font-weight:bold;vertical-align:top;">cookies</td><td style="vertical-align:top;">:</td><td><div><table><tr><td style="font-weight:bold;vertical-align:top;">session_id_define_git</td><td style="vertical-align:top;">:</td><td><div>127.0.0.1-bbef36d1-d8df-4ddf-8aa6-8cca246b7fd5<table><tr><td style="font-weight:bold;vertical-align:top;">comment</td><td style="vertical-align:top;">:</td><td><div></div></td></tr><tr><td style="font-weight:bold;vertical-align:top;">domain</td><td style="vertical-align:top;">:</td><td><div></div></td></tr><tr><td style="font-weight:bold;vertical-align:top;">expires</td><td style="vertical-align:top;">:</td><td><div></div></td></tr><tr><td style="font-weight:bold;vertical-align:top;">httponly</td><td style="vertical-align:top;">:</td><td><div></div></td></tr><tr><td style="font-weight:bold;vertical-align:top;">max-age</td><td style="vertical-align:top;">:</td><td><div></div></td></tr><tr><td style="font-weight:bold;vertical-align:top;">path</td><td style="vertical-align:top;">:</td><td><div>/</div></td></tr><tr><td style="font-weight:bold;vertical-align:top;">secure</td><td style="vertical-align:top;">:</td><td><div></div></td></tr><tr><td style="font-weight:bold;vertical-align:top;">version</td><td style="vertical-align:top;">:</td><td><div></div></td></tr></table></div></td></tr></table></div></td></tr><tr><td style="font-weight:bold;vertical-align:top;">delimiters</td><td style="vertical-align:top;">:</td><td><div><table><tr><td><div>{{</div></td></tr><tr><td><div>}}</div></td></tr></table></div></td></tr><tr><td style="font-weight:bold;vertical-align:top;">files</td><td style="vertical-align:top;">:</td><td><div><table><tr><td><div>/define_git/static/js/jquery.js</div></td></tr><tr><td><div>/define_git/static/css/calendar.css</div></td></tr><tr><td><div>/define_git/static/js/calendar.js</div></td></tr><tr><td><div>/define_git/static/js/web2py.js</div></td></tr></table></div></td></tr><tr><td style="font-weight:bold;vertical-align:top;">flash</td><td style="vertical-align:top;">:</td><td><div>Continua desde la \xc3\xbaltima sesi\xc3\xb3n</div></td></tr><tr><td style="font-weight:bold;vertical-align:top;">form_label_separator</td><td style="vertical-align:top;">:</td><td><div></div></td></tr><tr><td style="font-weight:bold;vertical-align:top;">formstyle</td><td style="vertical-align:top;">:</td><td><div>bootstrap3_inline</div></td></tr><tr><td style="font-weight:bold;vertical-align:top;">generic_patterns</td><td style="vertical-align:top;">:</td><td><div><table><tr><td><div>*</div></td></tr></table></div></td></tr><tr><td style="font-weight:bold;vertical-align:top;">headers</td><td style="vertical-align:top;">:</td><td><div><table><tr><td style="font-weight:bold;vertical-align:top;">X-Powered-By</td><td style="vertical-align:top;">:</td><td><div>web2py</div></td></tr></table></div></td></tr><tr><td style="font-weight:bold;vertical-align:top;">menu</td><td style="vertical-align:top;">:</td><td><div><table><tr><td><div><table><tr><td><div>Inicio</div></td></tr><tr><td><div>False</div></td></tr><tr><td><div>/define_git/default/index</div></td></tr></table></div></td></tr></table></div></td></tr><tr><td style="font-weight:bold;vertical-align:top;">meta</td><td style="vertical-align:top;">:</td><td><div><table></table></div></td></tr><tr><td style="font-weight:bold;vertical-align:top;">models_to_run</td><td style="vertical-align:top;">:</td><td><div><table><tr><td><div>^\\w+\\.py$</div></td></tr><tr><td><div>^particular/\\w+\\.py$</div></td></tr><tr><td><div>^particular/relacion/\\w+\\.py$</div></td></tr></table></div></td></tr><tr><td style="font-weight:bold;vertical-align:top;">postprocessing</td><td style="vertical-align:top;">:</td><td><div><table></table></div></td></tr><tr><td style="font-weight:bold;vertical-align:top;">session_client</td><td style="vertical-align:top;">:</td><td><div>127.0.0.1</div></td></tr><tr><td style="font-weight:bold;vertical-align:top;">session_cookie_compression_level</td><td style="vertical-align:top;">:</td><td><div>None</div></td></tr><tr><td style="font-weight:bold;vertical-align:top;">session_cookie_expires</td><td style="vertical-align:top;">:</td><td><div>None</div></td></tr><tr><td style="font-weight:bold;vertical-align:top;">session_cookie_key</td><td style="vertical-align:top;">:</td><td><div>None</div></td></tr><tr><td style="font-weight:bold;vertical-align:top;">session_data_name</td><td style="vertical-align:top;">:</td><td><div>session_data_define_git</div></td></tr><tr><td style="font-weight:bold;vertical-align:top;">session_file</td><td style="vertical-align:top;">:</td><td><div>&lt;open file &#x27;C:\\\\Users\\\\Antonio\\\\Documents\\\\Servicio\\\\nuevo2\\\\web2py\\\\applications\\\\define_git\\\\sessions\\\\026\\\\027\\\\127.0.0.1-bbef36d1-d8df-4ddf-8aa6-8cca246b7fd5&#x27;, mode &#x27;rb+&#x27; at 0x08AE5C28&gt;</div></td></tr><tr><td style="font-weight:bold;vertical-align:top;">session_filename</td><td style="vertical-align:top;">:</td><td><div>C:\\Users\\Antonio\\Documents\\Servicio\\nuevo2\\web2py\\applications\\define_git\\sessions\\127.0.0.1-bbef36d1-d8df-4ddf-8aa6-8cca246b7fd5</div></td></tr><tr><td style="font-weight:bold;vertical-align:top;">session_hash</td><td style="vertical-align:top;">:</td><td><div>5ca5278c99fc9f457d0a84093e574294</div></td></tr><tr><td style="font-weight:bold;vertical-align:top;">session_id</td><td style="vertical-align:top;">:</td><td><div>127.0.0.1-bbef36d1-d8df-4ddf-8aa6-8cca246b7fd5</div></td></tr><tr><td style="font-weight:bold;vertical-align:top;">session_id_name</td><td style="vertical-align:top;">:</td><td><div>session_id_define_git</div></td></tr><tr><td style="font-weight:bold;vertical-align:top;">session_locked</td><td style="vertical-align:top;">:</td><td><div>True</div></td></tr><tr><td style="font-weight:bold;vertical-align:top;">session_masterapp</td><td style="vertical-align:top;">:</td><td><div>define_git</div></td></tr><tr><td style="font-weight:bold;vertical-align:top;">session_new</td><td style="vertical-align:top;">:</td><td><div>False</div></td></tr><tr><td style="font-weight:bold;vertical-align:top;">session_storage_type</td><td style="vertical-align:top;">:</td><td><div>file</div></td></tr><tr><td style="font-weight:bold;vertical-align:top;">status</td><td style="vertical-align:top;">:</td><td><div>200</div></td></tr><tr><td style="font-weight:bold;vertical-align:top;">subtitle</td><td style="vertical-align:top;">:</td><td><div>Aplicaci\xc3\xb3n para relacionar</div></td></tr><tr><td style="font-weight:bold;vertical-align:top;">title</td><td style="vertical-align:top;">:</td><td><div>Define</div></td></tr><tr><td style="font-weight:bold;vertical-align:top;">view</td><td style="vertical-align:top;">:</td><td><div>particular/relacion.html</div></td></tr></table></div>'
tRp124
sS'locals'
p125
(dp126
S'Service'
p127
S"<class 'gluon.tools.Service'>"
p128
sS'OBJECT'
p129
S"<class 'gluon.html.OBJECT'>"
p130
sS'SQLDB'
p131
S"<class 'pydal.base.DAL'>"
p132
sg117
S"<Storage {'last_orderby': None, 'last_query': 'd...gin]': ['1a963631-41da-4be3-9fea-6f3259bb56d3']}>"
p133
sS'LINK'
p134
S"<class 'gluon.html.LINK'>"
p135
sS'BR'
p136
S"<class 'gluon.html.BR'>"
p137
sS'local_import'
p138
S'<function <lambda>>'
p139
sS'OPTGROUP'
p140
S"<class 'gluon.html.OPTGROUP'>"
p141
sS'__package__'
p142
S'None'
p143
sS'PRE'
p144
S"<class 'gluon.html.PRE'>"
p145
sS'IS_INT_IN_RANGE'
p146
S"<class 'gluon.validators.IS_INT_IN_RANGE'>"
p147
sS'left_sidebar_enabled'
p148
S'False'
p149
sS'IS_LOWER'
p150
S"<class 'gluon.validators.IS_LOWER'>"
p151
sS'IS_STRONG'
p152
S"<class 'gluon.validators.IS_STRONG'>"
p153
sS'cache'
p154
S'<gluon.cache.Cache object>'
p155
sS'IS_IN_DB'
p156
S"<class 'gluon.validators.IS_IN_DB'>"
p157
sS'TAG'
p158
S'<gluon.html.__TAG__ object>'
p159
sS'SQLField'
p160
S"<class 'pydal.objects.Field'>"
p161
sS'mail'
p162
S'<gluon.tools.Mail object>'
p163
sS'BODY'
p164
S"<class 'gluon.html.BODY'>"
p165
sS'IS_DATE_IN_RANGE'
p166
S"<class 'gluon.validators.IS_DATE_IN_RANGE'>"
p167
sS'IFRAME'
p168
S"<class 'gluon.html.IFRAME'>"
p169
sS'URL'
p170
S'<function URL>'
p171
sS'__file__'
p172
S"r'C:\\Users\\Antonio\\Documents\\Servicio\\nuevo2\\web2p...cations\\define_git\\views\\particular/relacion.html'"
p173
sS'db'
p174
S'<DAL uri="sqlite://storage.sqlite">'
p175
sS'auth'
p176
S'<gluon.tools.Auth object>'
p177
sS'P'
S"<class 'gluon.html.P'>"
p178
sS'TFOOT'
p179
S"<class 'gluon.html.TFOOT'>"
p180
sS'XHTML'
p181
S"<class 'gluon.html.XHTML'>"
p182
sS'ON'
p183
S'True'
p184
sS'OL'
p185
S"<class 'gluon.html.OL'>"
p186
sS'TEXTAREA'
p187
S"<class 'gluon.html.TEXTAREA'>"
p188
sS'MENU'
p189
S"<class 'gluon.html.MENU'>"
p190
sS'IS_IMAGE'
p191
S"<class 'gluon.validators.IS_IMAGE'>"
p192
sS'EM'
p193
S"<class 'gluon.html.EM'>"
p194
sS'CODE'
p195
S"<class 'gluon.html.CODE'>"
p196
sS'HTTP'
p197
S"<class 'gluon.http.HTTP'>"
p198
sS'HR'
p199
S"<class 'gluon.html.HR'>"
p200
sS'IS_DATETIME'
p201
S"<class 'gluon.validators.IS_DATETIME'>"
p202
sS'STYLE'
p203
S"<class 'gluon.html.STYLE'>"
p204
sS'LABEL'
p205
S"<class 'gluon.html.LABEL'>"
p206
sS'CLEANUP'
p207
S"<class 'gluon.validators.CLEANUP'>"
p208
sS'plugins'
p209
S'<gluon.tools.PluginManager object>'
p210
sS'SELECT'
p211
S"<class 'gluon.html.SELECT'>"
p212
sS'CENTER'
p213
S"<class 'gluon.html.CENTER'>"
p214
sS'Auth'
p215
S"<class 'gluon.tools.Auth'>"
p216
sS'COL'
p217
S"<class 'gluon.html.COL'>"
p218
sS'__builtins__'
p219
S"{'ArithmeticError': <type 'exceptions.ArithmeticError'>, 'AssertionError': <type 'exceptions.AssertionError'>, 'AttributeError': <type 'exceptions.AttributeError'>, 'BaseException': <type 'exceptions.BaseException'>, 'BufferError': <type 'exceptions.BufferError'>, 'BytesWarning': <type 'exceptions.BytesWarning'>, 'DeprecationWarning': <type 'exceptions.DeprecationWarning'>, 'EOFError': <type 'exceptions.EOFError'>, 'Ellipsis': Ellipsis, 'EnvironmentError': <type 'exceptions.EnvironmentError'>, ...}"
p220
sS'HTML'
p221
S"<class 'gluon.html.HTML'>"
p222
sS'SQLFORM'
p223
S"<class 'gluon.sqlhtml.SQLFORM'>"
p224
sS'LOAD'
p225
S'<function LOAD>'
p226
sS'redirect'
p227
S'<function redirect>'
p228
sS'FIELDSET'
p229
S"<class 'gluon.html.FIELDSET'>"
p230
sS'IS_EQUAL_TO'
p231
S"<class 'gluon.validators.IS_EQUAL_TO'>"
p232
sS'total_usuarios'
p233
S'1'
sS'embed64'
p234
S'<function embed64>'
p235
sS'IS_LIST_OF'
p236
S"<class 'gluon.validators.IS_LIST_OF'>"
p237
sS'INPUT'
p238
S"<class 'gluon.html.INPUT'>"
p239
sS'EMBED'
p240
S"<class 'gluon.html.EMBED'>"
p241
sS'myconf'
p242
S"{'forms': {'formstyle': 'bootstrap3_inline', 'se...'you@gmail.com', 'server': 'smtp.gmail.com:587'}}"
p243
sS'H2'
p244
S"<class 'gluon.html.H2'>"
p245
sS'H3'
p246
S"<class 'gluon.html.H3'>"
p247
sS'AppConfig'
p248
S'<function AppConfig>'
p249
sS'H1'
p250
S"<class 'gluon.html.H1'>"
p251
sS'H6'
p252
S"<class 'gluon.html.H6'>"
p253
sS'H4'
p254
S"<class 'gluon.html.H4'>"
p255
sS'H5'
p256
S"<class 'gluon.html.H5'>"
p257
sS'UL'
p258
S"<class 'gluon.html.UL'>"
p259
sS'IS_UPPER'
p260
S"<class 'gluon.validators.IS_UPPER'>"
p261
sS'xmlescape'
p262
S'<function xmlescape>'
p263
sS'IS_TIME'
p264
S"<class 'gluon.validators.IS_TIME'>"
p265
sS'OPTION'
p266
S"<class 'gluon.html.OPTION'>"
p267
sS'TITLE'
p268
S"<class 'gluon.html.TITLE'>"
p269
sS'CRYPT'
p270
S"<class 'gluon.validators.CRYPT'>"
p271
sS'IS_EMPTY_OR'
p272
S"<class 'gluon.validators.IS_EMPTY_OR'>"
p273
sS'MARKMIN'
p274
S"<class 'gluon.html.MARKMIN'>"
p275
sS'termino'
p276
S"<Row {'ter': 'Animal', 'id': 7L}>"
p277
sS'__name__'
p278
S"'__restricted__'"
p279
sS'STRONG'
p280
S"<class 'gluon.html.STRONG'>"
p281
sS'mc2'
p282
S"'col-md-6'"
p283
sS'mc1'
p284
S"'col-md-9'"
p285
sS'mc0'
p286
S"'col-md-12'"
p287
sS'service'
p288
S'<gluon.tools.Service object>'
p289
sS'SCRIPT'
p290
S"<class 'gluon.html.SCRIPT'>"
p291
sS'grupos'
p292
S'<Rows (5)>'
p293
sS'historial'
p294
S'[]'
p295
sS'name_of'
p296
S'<function name_of>'
p297
sS'TABLE'
p298
S"<class 'gluon.html.TABLE'>"
p299
sS'IS_IPV4'
p300
S"<class 'gluon.validators.IS_IPV4'>"
p301
sS'IS_LENGTH'
p302
S"<class 'gluon.validators.IS_LENGTH'>"
p303
sS'IS_IPV6'
p304
S"<class 'gluon.validators.IS_IPV6'>"
p305
sS'XML'
p306
S"<class 'gluon.html.XML'>"
p307
sS'B'
S"<class 'gluon.html.B'>"
p308
sS'IMG'
p309
S"<class 'gluon.html.IMG'>"
p310
sS'SQLTABLE'
p311
S"<class 'gluon.sqlhtml.SQLTABLE'>"
p312
sS'IS_MATCH'
p313
S"<class 'gluon.validators.IS_MATCH'>"
p314
sS'IS_ALPHANUMERIC'
p315
S"<class 'gluon.validators.IS_ALPHANUMERIC'>"
p316
sS'porcentaje'
p317
S"{54L: 1, 'u10': 1}"
p318
sS'SPAN'
p319
S"<class 'gluon.html.SPAN'>"
p320
sS'IS_JSON'
p321
S"<class 'gluon.validators.IS_JSON'>"
p322
sS'IS_IPADDRESS'
p323
S"<class 'gluon.validators.IS_IPADDRESS'>"
p324
sS'IS_SLUG'
p325
S"<class 'gluon.validators.IS_SLUG'>"
p326
sS'BEAUTIFY'
p327
S"<class 'gluon.html.BEAUTIFY'>"
p328
sS'META'
p329
S"<class 'gluon.html.META'>"
p330
sS'BUTTON'
p331
S"<class 'gluon.html.BUTTON'>"
p332
sS'IS_DATE'
p333
S"<class 'gluon.validators.IS_DATE'>"
p334
sS'IS_EMAIL'
p335
S"<class 'gluon.validators.IS_EMAIL'>"
p336
sS'middle_column'
p337
S"'col-md-12'"
p338
sS'IS_NOT_EMPTY'
p339
S"<class 'gluon.validators.IS_NOT_EMPTY'>"
p340
sS'IS_FLOAT_IN_RANGE'
p341
S"<class 'gluon.validators.IS_FLOAT_IN_RANGE'>"
p342
sS'TBODY'
p343
S"<class 'gluon.html.TBODY'>"
p344
sS'CAT'
p345
S"<class 'gluon.html.CAT'>"
p346
sS'Field'
p347
S"<class 'pydal.objects.Field'>"
p348
sS'IS_LIST_OF_EMAILS'
p349
S"<class 'gluon.validators.IS_LIST_OF_EMAILS'>"
p350
sS'DIV'
p351
S"<class 'gluon.html.DIV'>"
p352
sS'LEGEND'
p353
S"<class 'gluon.html.LEGEND'>"
p354
sS'muestra'
p355
S'<Rows (9)>'
p356
sS'COLGROUP'
p357
S"<class 'gluon.html.COLGROUP'>"
p358
sS'DAL'
p359
S"<class 'pydal.base.DAL'>"
p360
sS'ASSIGNJS'
p361
S'<function ASSIGNJS>'
p362
sS'TR'
p363
S"<class 'gluon.html.TR'>"
p364
sS'LI'
p365
S"<class 'gluon.html.LI'>"
p366
sS'right_sidebar_enabled'
p367
g149
sS'TH'
p368
S"<class 'gluon.html.TH'>"
p369
sS'TD'
p370
S"<class 'gluon.html.TD'>"
p371
sS'PluginManager'
p372
S"<class 'gluon.tools.PluginManager'>"
p373
sS'IS_URL'
p374
S"<class 'gluon.validators.IS_URL'>"
p375
sS'A'
S"<class 'gluon.html.A'>"
p376
sS'HEAD'
p377
S"<class 'gluon.html.HEAD'>"
p378
sS'IS_DATETIME_IN_RANGE'
p379
S"<class 'gluon.validators.IS_DATETIME_IN_RANGE'>"
p380
sS'FORM'
p381
S"<class 'gluon.html.FORM'>"
p382
sS'I'
S"<class 'gluon.html.I'>"
p383
sS'definicion'
p384
S"<Row {'id': 185L, 'termino_id': 7L, 'defi': 'und...eature as follows if it is in the last half...'}>"
p385
sS'IS_NOT_IN_DB'
p386
S"<class 'gluon.validators.IS_NOT_IN_DB'>"
p387
sS'user'
p388
S"<Row {'first_name': 'Antonio', 'last_name': 'Nu\\...ord_key': '', 'registration_key': '', 'id': 10L}>"
p389
sS'grupo'
p390
S"<Row {'tipo': 'Sistema', 'id': 52L, 'grup': 'No informativo', 'termino_id': 7L, 'modo': '1'}>"
p391
sg123
S"<Storage {'body': <cStringIO.StringO object at 0...0x08B02330>, 'view': 'particular/relacion.html'}>"
p392
sS'THEAD'
p393
S"<class 'gluon.html.THEAD'>"
p394
sS'ANY_OF'
p395
S"<class 'gluon.validators.ANY_OF'>"
p396
sS'IS_NULL_OR'
p397
S"<class 'gluon.validators.IS_EMPTY_OR'>"
p398
sS'usuario'
p399
S'10L'
p400
sg56
S"<Storage {'_vars': <Storage {'rd': '1'}>, 'funct...io\\\\nuevo2\\\\web2py\\\\applications\\\\define_git\\\\'}>"
p401
sS'IS_EXPR'
p402
S"<class 'gluon.validators.IS_EXPR'>"
p403
sS'T'
S'<gluon.languages.translator object>'
p404
sS'IS_IN_SET'
p405
S"<class 'gluon.validators.IS_IN_SET'>"
p406
sS'IS_UPLOAD_FILENAME'
p407
S"<class 'gluon.validators.IS_UPLOAD_FILENAME'>"
p408
sS'TT'
p409
S"<class 'gluon.html.TT'>"
p410
sS'IS_DECIMAL_IN_RANGE'
p411
S"<class 'gluon.validators.IS_DECIMAL_IN_RANGE'>"
p412
sssS'traceback'
p413
S'Traceback (most recent call last):\n  File "C:\\Users\\Antonio\\Documents\\Servicio\\nuevo2\\web2py\\gluon\\restricted.py", line 227, in restricted\n    exec ccode in environment\n  File "C:\\Users\\Antonio\\Documents\\Servicio\\nuevo2\\web2py\\applications\\define_git\\views\\particular/relacion.html", line 121, in <module>\n    document.getElementById("relacion_form").submit();\nNameError: name \'personalizado\' is not defined\n'
p414
s.