(dp1
S'output'
p2
S"<class 'sqlite3.OperationalError'> table auth_user already exists"
p3
sS'layer'
p4
S'C:\\Users\\Antonio\\Documents\\Servicio\\nuevo2\\web2py\\applications\\define_git\\models\\db.py'
p5
sS'code'
p6
S"# -*- coding: utf-8 -*-\n\n#########################################################################\n## This scaffolding model makes your app work on Google App Engine too\n## File is released under public domain and you can use without limitations\n#########################################################################\n\n## if SSL/HTTPS is properly configured and you want all HTTP requests to\n## be redirected to HTTPS, uncomment the line below:\n# request.requires_https()\n\n## app configuration made easy. Look inside private/appconfig.ini\nfrom gluon.contrib.appconfig import AppConfig\n## once in production, remove reload=True to gain full speed\nmyconf = AppConfig(reload=True)\n\n\nif not request.env.web2py_runtime_gae:\n    ## if NOT running on Google App Engine use SQLite or other DB\n    db = DAL(myconf.take('db.uri'), pool_size=myconf.take('db.pool_size', cast=int), check_reserved=['all'])\nelse:\n    ## connect to Google BigTable (optional 'google:datastore://namespace')\n    db = DAL('google:datastore+ndb')\n    ## store sessions and tickets there\n    session.connect(request, response, db=db)\n    ## or store session in Memcache, Redis, etc.\n    ## from gluon.contrib.memdb import MEMDB\n    ## from google.appengine.api.memcache import Client\n    ## session.connect(request, response, db = MEMDB(Client()))\n\n## by default give a view/generic.extension to all actions from localhost\n## none otherwise. a pattern can be 'controller/function.extension'\nresponse.generic_patterns = ['*'] if request.is_local else []\n## choose a style for forms\nresponse.formstyle = myconf.take('forms.formstyle')  # or 'bootstrap3_stacked' or 'bootstrap2' or other\nresponse.form_label_separator = myconf.take('forms.separator')\n\n\n## (optional) optimize handling of static files\n# response.optimize_css = 'concat,minify,inline'\n# response.optimize_js = 'concat,minify,inline'\n## (optional) static assets folder versioning\n# response.static_version = '0.0.0'\n#########################################################################\n## Here is sample code if you need for\n## - email capabilities\n## - authentication (registration, login, logout, ... )\n## - authorization (role based authorization)\n## - services (xml, csv, json, xmlrpc, jsonrpc, amf, rss)\n## - old style crud actions\n## (more options discussed in gluon/tools.py)\n#########################################################################\n\nfrom gluon.tools import Auth, Service, PluginManager\n\nauth = Auth(db)\nservice = Service()\nplugins = PluginManager()\n\n## create all tables needed by auth if not custom tables\nauth.define_tables(username=False, signature=False)\n\n## configure email\nmail = auth.settings.mailer #Ajustes del mail\nmail.settings.server = 'smtp.gmail.com:587' #Servidor que se usar\xc3\xa1\nmail.settings.sender = 'define.gil@gmail.com' #Correo desde el cual se enviar\xc3\xa1n las notificaciones\nmail.settings.login = 'define.gil:admin.gil' #Datos de acceso del correo\n\n## configure auth policy\nauth.settings.registration_requires_verification = True\nauth.settings.login_after_registration = False\nauth.settings.registration_requires_approval = False\nauth.settings.reset_password_requires_verification = True\nauth.messages.verify_email = 'Click on the link http://' +     request.env.http_host +     URL(r=request,c='default',f='user',args=['verify_email']) +     '/%(key)s to verify your email'\nauth.messages.reset_password = 'Click on the link http://' +     request.env.http_host +     URL(r=request,c='default',f='user',args=['reset_password']) +     '/%(key)s to reset your password'\n\n#########################################################################\n## Define your tables below (or better in another model file) for example\n##\n## >>> db.define_table('mytable',Field('myfield','string'))\n##\n## Fields can be 'string','text','password','integer','double','boolean'\n##       'date','time','datetime','blob','upload', 'reference TABLENAME'\n## There is an implicit 'id integer autoincrement' field\n## Consult manual for more options, validators, etc.\n##\n## More API examples for controllers:\n##\n## >>> db.mytable.insert(myfield='value')\n## >>> rows=db(db.mytable.myfield=='value').select(db.mytable.ALL)\n## >>> for row in rows: print row.id, row.myfield\n#########################################################################\n\n## after defining tables, uncomment below to enable auditing\n# auth.enable_record_versioning(db)\n\n\nfrom gluon.tools import Auth\n\nauth = Auth(db)\ndb.define_table('termino', Field('ter', 'text'))\ndb.define_table('definicion', Field('defi', 'text'), Field('termino_id', 'reference termino', default=1))\ndb.define_table('grupo', Field('grup'), Field('termino_id', 'reference termino'), Field('tipo'), Field('modo'))\ndb.define_table('relacion', Field('keywords'), Field('grado'), Field('grupo_id', 'reference grupo'), Field('definicion_id', 'reference definicion'), Field('usuario', 'reference auth_user'), Field('modo'))\ndb.define_table('temporal', Field('usuario_id', 'reference auth_user'), Field('definicion_id', 'reference definicion'), Field('modo'))\ndb.define_table('claves', Field('grupo_id', 'reference grupo'), Field('usuario_id', 'reference auth_user'), Field('nombre'))\n\n\nusuario = auth.user_id\nuser = auth.user\n\ndef name_of(usuario):\n    return '%(first_name)s %(last_name)s' % usuario\n"
p7
sS'snapshot'
p8
(dp9
S'exception'
p10
(dp11
S'__module__'
p12
S"'sqlite3'"
p13
sS'__getslice__'
p14
S"<method-wrapper '__getslice__' of OperationalError object>"
p15
sS'__str__'
p16
S"<method-wrapper '__str__' of OperationalError object>"
p17
sS'__reduce__'
p18
S'<built-in method __reduce__ of OperationalError object>'
p19
sS'__dict__'
p20
S'{}'
p21
sS'__sizeof__'
p22
S'<built-in method __sizeof__ of OperationalError object>'
p23
sS'__weakref__'
p24
S'None'
p25
sS'__init__'
p26
S"<method-wrapper '__init__' of OperationalError object>"
p27
sS'__setattr__'
p28
S"<method-wrapper '__setattr__' of OperationalError object>"
p29
sS'__reduce_ex__'
p30
S'<built-in method __reduce_ex__ of OperationalError object>'
p31
sS'__new__'
p32
S'<built-in method __new__ of type object>'
p33
sS'__format__'
p34
S'<built-in method __format__ of OperationalError object>'
p35
sS'__class__'
p36
S"<class 'sqlite3.OperationalError'>"
p37
sS'__doc__'
p38
S'None'
p39
sS'__getitem__'
p40
S"<method-wrapper '__getitem__' of OperationalError object>"
p41
sS'__setstate__'
p42
S'<built-in method __setstate__ of OperationalError object>'
p43
sS'__getattribute__'
p44
S"<method-wrapper '__getattribute__' of OperationalError object>"
p45
sS'args'
p46
S"('table auth_user already exists',)"
p47
sS'__subclasshook__'
p48
S'<built-in method __subclasshook__ of type object>'
p49
sS'__unicode__'
p50
S'<built-in method __unicode__ of OperationalError object>'
p51
sS'__delattr__'
p52
S"<method-wrapper '__delattr__' of OperationalError object>"
p53
sS'__repr__'
p54
S"<method-wrapper '__repr__' of OperationalError object>"
p55
sS'__hash__'
p56
S"<method-wrapper '__hash__' of OperationalError object>"
p57
ssS'evalue'
p58
S'table auth_user already exists'
p59
sS'request'
p60
cgluon.html
XML_unpickle
p61
(S's\xf2_\x00\x00<div><table><tr><td style="font-weight:bold;vertical-align:top;">ajax</td><td style="vertical-align:top;">:</td><td><div>False</div></td></tr><tr><td style="font-weight:bold;vertical-align:top;">application</td><td style="vertical-align:top;">:</td><td><div>define_git</div></td></tr><tr><td style="font-weight:bold;vertical-align:top;">args</td><td style="vertical-align:top;">:</td><td><div><table></table></div></td></tr><tr><td style="font-weight:bold;vertical-align:top;">cid</td><td style="vertical-align:top;">:</td><td><div>None</div></td></tr><tr><td style="font-weight:bold;vertical-align:top;">client</td><td style="vertical-align:top;">:</td><td><div>127.0.0.1</div></td></tr><tr><td style="font-weight:bold;vertical-align:top;">controller</td><td style="vertical-align:top;">:</td><td><div>appadmin</div></td></tr><tr><td style="font-weight:bold;vertical-align:top;">cookies</td><td style="vertical-align:top;">:</td><td><div><table><tr><td style="font-weight:bold;vertical-align:top;">session_id_admin</td><td style="vertical-align:top;">:</td><td><div>127.0.0.1-86a8e935-ef53-4693-b448-64ae3d2fca91<table><tr><td style="font-weight:bold;vertical-align:top;">comment</td><td style="vertical-align:top;">:</td><td><div></div></td></tr><tr><td style="font-weight:bold;vertical-align:top;">domain</td><td style="vertical-align:top;">:</td><td><div></div></td></tr><tr><td style="font-weight:bold;vertical-align:top;">expires</td><td style="vertical-align:top;">:</td><td><div></div></td></tr><tr><td style="font-weight:bold;vertical-align:top;">httponly</td><td style="vertical-align:top;">:</td><td><div></div></td></tr><tr><td style="font-weight:bold;vertical-align:top;">max-age</td><td style="vertical-align:top;">:</td><td><div></div></td></tr><tr><td style="font-weight:bold;vertical-align:top;">path</td><td style="vertical-align:top;">:</td><td><div></div></td></tr><tr><td style="font-weight:bold;vertical-align:top;">secure</td><td style="vertical-align:top;">:</td><td><div></div></td></tr><tr><td style="font-weight:bold;vertical-align:top;">version</td><td style="vertical-align:top;">:</td><td><div></div></td></tr></table></div></td></tr><tr><td style="font-weight:bold;vertical-align:top;">session_id_define_git</td><td style="vertical-align:top;">:</td><td><div>127.0.0.1-20c0d5e3-e6c5-441d-b91f-8cd5764b528c<table><tr><td style="font-weight:bold;vertical-align:top;">comment</td><td style="vertical-align:top;">:</td><td><div></div></td></tr><tr><td style="font-weight:bold;vertical-align:top;">domain</td><td style="vertical-align:top;">:</td><td><div></div></td></tr><tr><td style="font-weight:bold;vertical-align:top;">expires</td><td style="vertical-align:top;">:</td><td><div></div></td></tr><tr><td style="font-weight:bold;vertical-align:top;">httponly</td><td style="vertical-align:top;">:</td><td><div></div></td></tr><tr><td style="font-weight:bold;vertical-align:top;">max-age</td><td style="vertical-align:top;">:</td><td><div></div></td></tr><tr><td style="font-weight:bold;vertical-align:top;">path</td><td style="vertical-align:top;">:</td><td><div></div></td></tr><tr><td style="font-weight:bold;vertical-align:top;">secure</td><td style="vertical-align:top;">:</td><td><div></div></td></tr><tr><td style="font-weight:bold;vertical-align:top;">version</td><td style="vertical-align:top;">:</td><td><div></div></td></tr></table></div></td></tr><tr><td style="font-weight:bold;vertical-align:top;">session_id_welcome</td><td style="vertical-align:top;">:</td><td><div>127.0.0.1-f67e18b9-ab82-4cc8-a610-379f7a2c9e0f<table><tr><td style="font-weight:bold;vertical-align:top;">comment</td><td style="vertical-align:top;">:</td><td><div></div></td></tr><tr><td style="font-weight:bold;vertical-align:top;">domain</td><td style="vertical-align:top;">:</td><td><div></div></td></tr><tr><td style="font-weight:bold;vertical-align:top;">expires</td><td style="vertical-align:top;">:</td><td><div></div></td></tr><tr><td style="font-weight:bold;vertical-align:top;">httponly</td><td style="vertical-align:top;">:</td><td><div></div></td></tr><tr><td style="font-weight:bold;vertical-align:top;">max-age</td><td style="vertical-align:top;">:</td><td><div></div></td></tr><tr><td style="font-weight:bold;vertical-align:top;">path</td><td style="vertical-align:top;">:</td><td><div></div></td></tr><tr><td style="font-weight:bold;vertical-align:top;">secure</td><td style="vertical-align:top;">:</td><td><div></div></td></tr><tr><td style="font-weight:bold;vertical-align:top;">version</td><td style="vertical-align:top;">:</td><td><div></div></td></tr></table></div></td></tr></table></div></td></tr><tr><td style="font-weight:bold;vertical-align:top;">env</td><td style="vertical-align:top;">:</td><td><div><table><tr><td style="font-weight:bold;vertical-align:top;">HTTP_ACCEPT</td><td style="vertical-align:top;">:</td><td><div>text/html,application/xhtml+xml,application/xml;q=0.9,*/*;q=0.8</div></td></tr><tr><td style="font-weight:bold;vertical-align:top;">HTTP_ACCEPT_ENCODING</td><td style="vertical-align:top;">:</td><td><div>gzip, deflate</div></td></tr><tr><td style="font-weight:bold;vertical-align:top;">HTTP_ACCEPT_LANGUAGE</td><td style="vertical-align:top;">:</td><td><div>es-MX,es-ES;q=0.8,en-US;q=0.7,es-AR;q=0.5,es;q=0.3,en;q=0.2</div></td></tr><tr><td style="font-weight:bold;vertical-align:top;">HTTP_CONNECTION</td><td style="vertical-align:top;">:</td><td><div>keep-alive</div></td></tr><tr><td style="font-weight:bold;vertical-align:top;">HTTP_COOKIE</td><td style="vertical-align:top;">:</td><td><div>session_id_welcome=127.0.0.1-f67e18b9-ab82-4cc8-a610-379f7a2c9e0f; session_id_admin=127.0.0.1-86a8e935-ef53-4693-b448-64ae3d2fca91; session_id_define_git=127.0.0.1-20c0d5e3-e6c5-441d-b91f-8cd5764b528c</div></td></tr><tr><td style="font-weight:bold;vertical-align:top;">HTTP_HOST</td><td style="vertical-align:top;">:</td><td><div>localhost:8000</div></td></tr><tr><td style="font-weight:bold;vertical-align:top;">HTTP_REFERER</td><td style="vertical-align:top;">:</td><td><div>http://localhost:8000/define_git/appadmin/select/db?query=db.definicion.id%3E0</div></td></tr><tr><td style="font-weight:bold;vertical-align:top;">HTTP_USER_AGENT</td><td style="vertical-align:top;">:</td><td><div>Mozilla/5.0 (Windows NT 6.1; rv:43.0) Gecko/20100101 Firefox/43.0</div></td></tr><tr><td style="font-weight:bold;vertical-align:top;">PATH_INFO</td><td style="vertical-align:top;">:</td><td><div>/define_git/appadmin/index</div></td></tr><tr><td style="font-weight:bold;vertical-align:top;">QUERY_STRING</td><td style="vertical-align:top;">:</td><td><div></div></td></tr><tr><td style="font-weight:bold;vertical-align:top;">REMOTE_ADDR</td><td style="vertical-align:top;">:</td><td><div>127.0.0.1</div></td></tr><tr><td style="font-weight:bold;vertical-align:top;">REMOTE_PORT</td><td style="vertical-align:top;">:</td><td><div>52024</div></td></tr><tr><td style="font-weight:bold;vertical-align:top;">REQUEST_METHOD</td><td style="vertical-align:top;">:</td><td><div>GET</div></td></tr><tr><td style="font-weight:bold;vertical-align:top;">SCRIPT_NAME</td><td style="vertical-align:top;">:</td><td><div></div></td></tr><tr><td style="font-weight:bold;vertical-align:top;">SERVER_NAME</td><td style="vertical-align:top;">:</td><td><div>Antonio-PC</div></td></tr><tr><td style="font-weight:bold;vertical-align:top;">SERVER_PORT</td><td style="vertical-align:top;">:</td><td><div>8000</div></td></tr><tr><td style="font-weight:bold;vertical-align:top;">SERVER_PROTOCOL</td><td style="vertical-align:top;">:</td><td><div>HTTP/1.1</div></td></tr><tr><td style="font-weight:bold;vertical-align:top;">SERVER_SOFTWARE</td><td style="vertical-align:top;">:</td><td><div>Rocket 1.2.6</div></td></tr><tr><td style="font-weight:bold;vertical-align:top;">app_folders</td><td style="vertical-align:top;">:</td><td><div>set([&#x27;C:\\\\Users\\\\Antonio\\\\Documents\\\\Servicio\\\\nuevo2\\\\web2py\\\\applications\\\\welcome\\\\&#x27;, &#x27;C:\\\\Users\\\\Antonio\\\\Documents\\\\Servicio\\\\nuevo2\\\\web2py\\\\applications\\\\admin\\\\&#x27;, &#x27;C:\\\\Users\\\\Antonio\\\\Documents\\\\Servicio\\\\nuevo2\\\\web2py\\\\applications\\\\define_git\\\\&#x27;])</div></td></tr><tr><td style="font-weight:bold;vertical-align:top;">applications_parent</td><td style="vertical-align:top;">:</td><td><div>C:\\Users\\Antonio\\Documents\\Servicio\\nuevo2\\web2py</div></td></tr><tr><td style="font-weight:bold;vertical-align:top;">cmd_args</td><td style="vertical-align:top;">:</td><td><div><table></table></div></td></tr><tr><td style="font-weight:bold;vertical-align:top;">cmd_options</td><td style="vertical-align:top;">:</td><td><div>&lt;Values at 0x2701238: {&#x27;verbose&#x27;: False, &#x27;ip&#x27;: &#x27;127.0.0.1&#x27;, &#x27;debuglevel&#x27;: 30, &#x27;with_scheduler&#x27;: False, &#x27;ips&#x27;: [&#x27;fe80::c19a:2dcb:509a:1544%16&#x27;, &#x27;fe80::700f:f26a:3942:deab%17&#x27;, &#x27;192.168.50.1&#x27;, &#x27;fe80::d8a1:5c7c:68b4:6917%14&#x27;, &#x27;192.168.0.102&#x27;, &#x27;192.168.80.1&#x27;], &#x27;shutdown_timeout&#x27;: 5, &#x27;taskbar&#x27;: False, &#x27;with_coverage&#x27;: False, &#x27;scheduler_groups&#x27;: None, &#x27;port&#x27;: 8000, &#x27;maxthreads&#x27;: None, &#x27;softcron&#x27;: False, &#x27;server_name&#x27;: &#x27;Antonio-PC&#x27;, &#x27;bpython&#x27;: False, &#x27;nogui&#x27;: False, &#x27;pid_filename&#x27;: &#x27;httpserver.pid&#x27;, &#x27;print_errors&#x27;: False, &#x27;extcron&#x27;: False, &#x27;runcron&#x27;: False, &#x27;run_system_tests&#x27;: False, &#x27;test&#x27;: None, &#x27;folder&#x27;: &#x27;C:\\\\Users\\\\Antonio\\\\Documents\\\\Servicio\\\\nuevo2\\\\web2py&#x27;, &#x27;config&#x27;: &#x27;&#x27;, &#x27;minthreads&#x27;: None, &#x27;shell&#x27;: None, &#x27;run&#x27;: &#x27;&#x27;, &#x27;log_filename&#x27;: &#x27;httpserver.log&#x27;, &#x27;profiler_dir&#x27;: None, &#x27;args&#x27;: [&#x27;&#x27;], &#x27;socket_timeout&#x27;: 5, &#x27;ssl_ca_certificate&#x27;: None, &#x27;scheduler&#x27;: None, &#x27;interfaces&#x27;: None, &#x27;ssl_private_key&#x27;: &#x27;&#x27;, &#x27;gae&#x27;: None, &#x27;password&#x27;: &#x27;&lt;ask&gt;&#x27;, &#x27;request_queue_size&#x27;: 5, &#x27;ssl_certificate&#x27;: &#x27;&#x27;, &#x27;cronjob&#x27;: False, &#x27;numthreads&#x27;: None, &#x27;quiet&#x27;: False, &#x27;import_models&#x27;: False, &#x27;timeout&#x27;: 10, &#x27;plain&#x27;: False, &#x27;nobanner&#x27;: False}&gt;</div></td></tr><tr><td style="font-weight:bold;vertical-align:top;">db_sessions</td><td style="vertical-align:top;">:</td><td><div>set([])</div></td></tr><tr><td style="font-weight:bold;vertical-align:top;">debugging</td><td style="vertical-align:top;">:</td><td><div>True</div></td></tr><tr><td style="font-weight:bold;vertical-align:top;">gluon_parent</td><td style="vertical-align:top;">:</td><td><div>C:\\Users\\Antonio\\Documents\\Servicio\\nuevo2\\web2py</div></td></tr><tr><td style="font-weight:bold;vertical-align:top;">http_accept</td><td style="vertical-align:top;">:</td><td><div>text/html,application/xhtml+xml,application/xml;q=0.9,*/*;q=0.8</div></td></tr><tr><td style="font-weight:bold;vertical-align:top;">http_accept_encoding</td><td style="vertical-align:top;">:</td><td><div>gzip, deflate</div></td></tr><tr><td style="font-weight:bold;vertical-align:top;">http_accept_language</td><td style="vertical-align:top;">:</td><td><div>es-MX,es-ES;q=0.8,en-US;q=0.7,es-AR;q=0.5,es;q=0.3,en;q=0.2</div></td></tr><tr><td style="font-weight:bold;vertical-align:top;">http_connection</td><td style="vertical-align:top;">:</td><td><div>keep-alive</div></td></tr><tr><td style="font-weight:bold;vertical-align:top;">http_cookie</td><td style="vertical-align:top;">:</td><td><div>session_id_welcome=127.0.0.1-f67e18b9-ab82-4cc8-a610-379f7a2c9e0f; session_id_admin=127.0.0.1-86a8e935-ef53-4693-b448-64ae3d2fca91; session_id_define_git=127.0.0.1-20c0d5e3-e6c5-441d-b91f-8cd5764b528c</div></td></tr><tr><td style="font-weight:bold;vertical-align:top;">http_host</td><td style="vertical-align:top;">:</td><td><div>localhost:8000</div></td></tr><tr><td style="font-weight:bold;vertical-align:top;">http_referer</td><td style="vertical-align:top;">:</td><td><div>http://localhost:8000/define_git/appadmin/select/db?query=db.definicion.id%3E0</div></td></tr><tr><td style="font-weight:bold;vertical-align:top;">http_user_agent</td><td style="vertical-align:top;">:</td><td><div>Mozilla/5.0 (Windows NT 6.1; rv:43.0) Gecko/20100101 Firefox/43.0</div></td></tr><tr><td style="font-weight:bold;vertical-align:top;">is_jython</td><td style="vertical-align:top;">:</td><td><div>False</div></td></tr><tr><td style="font-weight:bold;vertical-align:top;">is_pypy</td><td style="vertical-align:top;">:</td><td><div>False</div></td></tr><tr><td style="font-weight:bold;vertical-align:top;">is_source</td><td style="vertical-align:top;">:</td><td><div>True</div></td></tr><tr><td style="font-weight:bold;vertical-align:top;">local_hosts</td><td style="vertical-align:top;">:</td><td><div><table><tr><td><div>fe80::c19a:2dcb:509a:1544%16</div></td></tr><tr><td><div>Antonio-PC</div></td></tr><tr><td><div>fe80::700f:f26a:3942:deab%17</div></td></tr><tr><td><div>::ffff:127.0.0.1</div></td></tr><tr><td><div>::1</div></td></tr><tr><td><div>192.168.50.1</div></td></tr><tr><td><div>192.168.80.1</div></td></tr><tr><td><div>fe80::d8a1:5c7c:68b4:6917%14</div></td></tr><tr><td><div>192.168.0.102</div></td></tr><tr><td><div>127.0.0.1</div></td></tr></table></div></td></tr><tr><td style="font-weight:bold;vertical-align:top;">path_info</td><td style="vertical-align:top;">:</td><td><div>/define_git/appadmin/index</div></td></tr><tr><td style="font-weight:bold;vertical-align:top;">query_string</td><td style="vertical-align:top;">:</td><td><div></div></td></tr><tr><td style="font-weight:bold;vertical-align:top;">remote_addr</td><td style="vertical-align:top;">:</td><td><div>127.0.0.1</div></td></tr><tr><td style="font-weight:bold;vertical-align:top;">remote_port</td><td style="vertical-align:top;">:</td><td><div>52024</div></td></tr><tr><td style="font-weight:bold;vertical-align:top;">request_method</td><td style="vertical-align:top;">:</td><td><div>GET</div></td></tr><tr><td style="font-weight:bold;vertical-align:top;">request_uri</td><td style="vertical-align:top;">:</td><td><div>/define_git/appadmin/index</div></td></tr><tr><td style="font-weight:bold;vertical-align:top;">script_name</td><td style="vertical-align:top;">:</td><td><div></div></td></tr><tr><td style="font-weight:bold;vertical-align:top;">server_name</td><td style="vertical-align:top;">:</td><td><div>Antonio-PC</div></td></tr><tr><td style="font-weight:bold;vertical-align:top;">server_port</td><td style="vertical-align:top;">:</td><td><div>8000</div></td></tr><tr><td style="font-weight:bold;vertical-align:top;">server_protocol</td><td style="vertical-align:top;">:</td><td><div>HTTP/1.1</div></td></tr><tr><td style="font-weight:bold;vertical-align:top;">server_software</td><td style="vertical-align:top;">:</td><td><div>Rocket 1.2.6</div></td></tr><tr><td style="font-weight:bold;vertical-align:top;">web2py_path</td><td style="vertical-align:top;">:</td><td><div>C:\\Users\\Antonio\\Documents\\Servicio\\nuevo2\\web2py</div></td></tr><tr><td style="font-weight:bold;vertical-align:top;">web2py_version</td><td style="vertical-align:top;">:</td><td><div>2.11.2-stable+timestamp.2015.05.30.11.29.46</div></td></tr><tr><td style="font-weight:bold;vertical-align:top;">wsgi.errors</td><td style="vertical-align:top;">:</td><td><div>&lt;open file &#x27;&lt;stderr&gt;&#x27;, mode &#x27;w&#x27; at 0x012CD0D0&gt;</div></td></tr><tr><td style="font-weight:bold;vertical-align:top;">wsgi.file_wrapper</td><td style="vertical-align:top;">:</td><td><div>&lt;class wsgiref.util.FileWrapper at 0x01E87FB8&gt;</div></td></tr><tr><td style="font-weight:bold;vertical-align:top;">wsgi.input</td><td style="vertical-align:top;">:</td><td><div>&lt;socket._fileobject object at 0x07C9CCF0&gt;</div></td></tr><tr><td style="font-weight:bold;vertical-align:top;">wsgi.multiprocess</td><td style="vertical-align:top;">:</td><td><div>False</div></td></tr><tr><td style="font-weight:bold;vertical-align:top;">wsgi.multithread</td><td style="vertical-align:top;">:</td><td><div>True</div></td></tr><tr><td style="font-weight:bold;vertical-align:top;">wsgi.run_once</td><td style="vertical-align:top;">:</td><td><div>False</div></td></tr><tr><td style="font-weight:bold;vertical-align:top;">wsgi.url_scheme</td><td style="vertical-align:top;">:</td><td><div>http</div></td></tr><tr><td style="font-weight:bold;vertical-align:top;">wsgi.version</td><td style="vertical-align:top;">:</td><td><div><table><tr><td><div>1</div></td></tr><tr><td><div>0</div></td></tr></table></div></td></tr><tr><td style="font-weight:bold;vertical-align:top;">wsgi_errors</td><td style="vertical-align:top;">:</td><td><div>&lt;open file &#x27;&lt;stderr&gt;&#x27;, mode &#x27;w&#x27; at 0x012CD0D0&gt;</div></td></tr><tr><td style="font-weight:bold;vertical-align:top;">wsgi_file_wrapper</td><td style="vertical-align:top;">:</td><td><div>&lt;class wsgiref.util.FileWrapper at 0x01E87FB8&gt;</div></td></tr><tr><td style="font-weight:bold;vertical-align:top;">wsgi_input</td><td style="vertical-align:top;">:</td><td><div>&lt;socket._fileobject object at 0x07C9CCF0&gt;</div></td></tr><tr><td style="font-weight:bold;vertical-align:top;">wsgi_multiprocess</td><td style="vertical-align:top;">:</td><td><div>False</div></td></tr><tr><td style="font-weight:bold;vertical-align:top;">wsgi_multithread</td><td style="vertical-align:top;">:</td><td><div>True</div></td></tr><tr><td style="font-weight:bold;vertical-align:top;">wsgi_run_once</td><td style="vertical-align:top;">:</td><td><div>False</div></td></tr><tr><td style="font-weight:bold;vertical-align:top;">wsgi_url_scheme</td><td style="vertical-align:top;">:</td><td><div>http</div></td></tr><tr><td style="font-weight:bold;vertical-align:top;">wsgi_version</td><td style="vertical-align:top;">:</td><td><div><table><tr><td><div>1</div></td></tr><tr><td><div>0</div></td></tr></table></div></td></tr></table></div></td></tr><tr><td style="font-weight:bold;vertical-align:top;">extension</td><td style="vertical-align:top;">:</td><td><div>html</div></td></tr><tr><td style="font-weight:bold;vertical-align:top;">folder</td><td style="vertical-align:top;">:</td><td><div>C:\\Users\\Antonio\\Documents\\Servicio\\nuevo2\\web2py\\applications\\define_git\\</div></td></tr><tr><td style="font-weight:bold;vertical-align:top;">function</td><td style="vertical-align:top;">:</td><td><div>index</div></td></tr><tr><td style="font-weight:bold;vertical-align:top;">global_settings</td><td style="vertical-align:top;">:</td><td><div><table><tr><td style="font-weight:bold;vertical-align:top;">app_folders</td><td style="vertical-align:top;">:</td><td><div>set([&#x27;C:\\\\Users\\\\Antonio\\\\Documents\\\\Servicio\\\\nuevo2\\\\web2py\\\\applications\\\\welcome\\\\&#x27;, &#x27;C:\\\\Users\\\\Antonio\\\\Documents\\\\Servicio\\\\nuevo2\\\\web2py\\\\applications\\\\admin\\\\&#x27;, &#x27;C:\\\\Users\\\\Antonio\\\\Documents\\\\Servicio\\\\nuevo2\\\\web2py\\\\applications\\\\define_git\\\\&#x27;])</div></td></tr><tr><td style="font-weight:bold;vertical-align:top;">applications_parent</td><td style="vertical-align:top;">:</td><td><div>C:\\Users\\Antonio\\Documents\\Servicio\\nuevo2\\web2py</div></td></tr><tr><td style="font-weight:bold;vertical-align:top;">cmd_args</td><td style="vertical-align:top;">:</td><td><div><table></table></div></td></tr><tr><td style="font-weight:bold;vertical-align:top;">cmd_options</td><td style="vertical-align:top;">:</td><td><div>&lt;Values at 0x2701238: {&#x27;verbose&#x27;: False, &#x27;ip&#x27;: &#x27;127.0.0.1&#x27;, &#x27;debuglevel&#x27;: 30, &#x27;with_scheduler&#x27;: False, &#x27;ips&#x27;: [&#x27;fe80::c19a:2dcb:509a:1544%16&#x27;, &#x27;fe80::700f:f26a:3942:deab%17&#x27;, &#x27;192.168.50.1&#x27;, &#x27;fe80::d8a1:5c7c:68b4:6917%14&#x27;, &#x27;192.168.0.102&#x27;, &#x27;192.168.80.1&#x27;], &#x27;shutdown_timeout&#x27;: 5, &#x27;taskbar&#x27;: False, &#x27;with_coverage&#x27;: False, &#x27;scheduler_groups&#x27;: None, &#x27;port&#x27;: 8000, &#x27;maxthreads&#x27;: None, &#x27;softcron&#x27;: False, &#x27;server_name&#x27;: &#x27;Antonio-PC&#x27;, &#x27;bpython&#x27;: False, &#x27;nogui&#x27;: False, &#x27;pid_filename&#x27;: &#x27;httpserver.pid&#x27;, &#x27;print_errors&#x27;: False, &#x27;extcron&#x27;: False, &#x27;runcron&#x27;: False, &#x27;run_system_tests&#x27;: False, &#x27;test&#x27;: None, &#x27;folder&#x27;: &#x27;C:\\\\Users\\\\Antonio\\\\Documents\\\\Servicio\\\\nuevo2\\\\web2py&#x27;, &#x27;config&#x27;: &#x27;&#x27;, &#x27;minthreads&#x27;: None, &#x27;shell&#x27;: None, &#x27;run&#x27;: &#x27;&#x27;, &#x27;log_filename&#x27;: &#x27;httpserver.log&#x27;, &#x27;profiler_dir&#x27;: None, &#x27;args&#x27;: [&#x27;&#x27;], &#x27;socket_timeout&#x27;: 5, &#x27;ssl_ca_certificate&#x27;: None, &#x27;scheduler&#x27;: None, &#x27;interfaces&#x27;: None, &#x27;ssl_private_key&#x27;: &#x27;&#x27;, &#x27;gae&#x27;: None, &#x27;password&#x27;: &#x27;&lt;ask&gt;&#x27;, &#x27;request_queue_size&#x27;: 5, &#x27;ssl_certificate&#x27;: &#x27;&#x27;, &#x27;cronjob&#x27;: False, &#x27;numthreads&#x27;: None, &#x27;quiet&#x27;: False, &#x27;import_models&#x27;: False, &#x27;timeout&#x27;: 10, &#x27;plain&#x27;: False, &#x27;nobanner&#x27;: False}&gt;</div></td></tr><tr><td style="font-weight:bold;vertical-align:top;">db_sessions</td><td style="vertical-align:top;">:</td><td><div>set([])</div></td></tr><tr><td style="font-weight:bold;vertical-align:top;">debugging</td><td style="vertical-align:top;">:</td><td><div>True</div></td></tr><tr><td style="font-weight:bold;vertical-align:top;">gluon_parent</td><td style="vertical-align:top;">:</td><td><div>C:\\Users\\Antonio\\Documents\\Servicio\\nuevo2\\web2py</div></td></tr><tr><td style="font-weight:bold;vertical-align:top;">is_jython</td><td style="vertical-align:top;">:</td><td><div>False</div></td></tr><tr><td style="font-weight:bold;vertical-align:top;">is_pypy</td><td style="vertical-align:top;">:</td><td><div>False</div></td></tr><tr><td style="font-weight:bold;vertical-align:top;">is_source</td><td style="vertical-align:top;">:</td><td><div>True</div></td></tr><tr><td style="font-weight:bold;vertical-align:top;">local_hosts</td><td style="vertical-align:top;">:</td><td><div><table><tr><td><div>fe80::c19a:2dcb:509a:1544%16</div></td></tr><tr><td><div>Antonio-PC</div></td></tr><tr><td><div>fe80::700f:f26a:3942:deab%17</div></td></tr><tr><td><div>::ffff:127.0.0.1</div></td></tr><tr><td><div>::1</div></td></tr><tr><td><div>192.168.50.1</div></td></tr><tr><td><div>192.168.80.1</div></td></tr><tr><td><div>fe80::d8a1:5c7c:68b4:6917%14</div></td></tr><tr><td><div>192.168.0.102</div></td></tr><tr><td><div>127.0.0.1</div></td></tr></table></div></td></tr><tr><td style="font-weight:bold;vertical-align:top;">web2py_version</td><td style="vertical-align:top;">:</td><td><div>2.11.2-stable+timestamp.2015.05.30.11.29.46</div></td></tr></table></div></td></tr><tr><td style="font-weight:bold;vertical-align:top;">is_https</td><td style="vertical-align:top;">:</td><td><div>False</div></td></tr><tr><td style="font-weight:bold;vertical-align:top;">is_local</td><td style="vertical-align:top;">:</td><td><div>True</div></td></tr><tr><td style="font-weight:bold;vertical-align:top;">is_restful</td><td style="vertical-align:top;">:</td><td><div>False</div></td></tr><tr><td style="font-weight:bold;vertical-align:top;">is_sheduler</td><td style="vertical-align:top;">:</td><td><div>None</div></td></tr><tr><td style="font-weight:bold;vertical-align:top;">is_shell</td><td style="vertical-align:top;">:</td><td><div>None</div></td></tr><tr><td style="font-weight:bold;vertical-align:top;">now</td><td style="vertical-align:top;">:</td><td><div>datetime.datetime(2016, 5, 17, 2, 15, 8, 482000)</div></td></tr><tr><td style="font-weight:bold;vertical-align:top;">raw_args</td><td style="vertical-align:top;">:</td><td><div></div></td></tr><tr><td style="font-weight:bold;vertical-align:top;">raw_extension</td><td style="vertical-align:top;">:</td><td><div>None</div></td></tr><tr><td style="font-weight:bold;vertical-align:top;">url</td><td style="vertical-align:top;">:</td><td><div>/define_git/appadmin/index</div></td></tr><tr><td style="font-weight:bold;vertical-align:top;">utcnow</td><td style="vertical-align:top;">:</td><td><div>datetime.datetime(2016, 5, 17, 7, 15, 8, 482000)</div></td></tr><tr><td style="font-weight:bold;vertical-align:top;">wsgi</td><td style="vertical-align:top;">:</td><td><div>&lt;gluon.main.LazyWSGI object at 0x07CA05D0&gt;</div></td></tr></table></div>'
tRp62
sS'frames'
p63
(lp64
(dp65
S'file'
p66
S'C:\\Users\\Antonio\\Documents\\Servicio\\nuevo2\\web2py\\gluon\\restricted.py'
p67
sS'dump'
p68
(dp69
S'environment'
p70
S"{'A': <class 'gluon.html.A'>, 'ANY_OF': <class 'gluon.validators.ANY_OF'>, 'ASSIGNJS': <function ASSIGNJS>, 'AppConfig': <function AppConfig>, 'Auth': <class 'gluon.tools.Auth'>, 'B': <class 'gluon.html.B'>, 'BEAUTIFY': <class 'gluon.html.BEAUTIFY'>, 'BODY': <class 'gluon.html.BODY'>, 'BR': <class 'gluon.html.BR'>, 'BUTTON': <class 'gluon.html.BUTTON'>, ...}"
p71
sS'ccode'
p72
S'<code object <module> at 080C3800, file "C:\\User...y\\applications\\define_git\\models\\db.py", line 13>'
p73
ssS'lnum'
p74
I227
sS'lines'
p75
(dp76
I224
S'            ccode = code'
p77
sI225
S'        else:'
p78
sI226
S'            ccode = compile2(code, layer)'
p79
sI227
S'        exec ccode in environment'
p80
sI228
S'    except HTTP:'
p81
sI229
S'        raise'
p82
sI230
S'    except RestrictedError:'
p83
sI231
S'        # do not encapsulate (obfuscate) the original RestrictedError'
p84
sI222
S'    try:'
p85
sI223
S'        if isinstance(code, types.CodeType):'
p86
ssS'call'
p87
S'(code="# -*- coding: utf-8 -*-\\n\\n#######################... return \'%(first_name)s %(last_name)s\' % usuario\\n", environment={\'A\': <class \'gluon.html.A\'>, \'ANY_OF\': <class \'gluon.validators.ANY_OF\'>, \'ASSIGNJS\': <function ASSIGNJS>, \'AppConfig\': <function AppConfig>, \'Auth\': <class \'gluon.tools.Auth\'>, \'B\': <class \'gluon.html.B\'>, \'BEAUTIFY\': <class \'gluon.html.BEAUTIFY\'>, \'BODY\': <class \'gluon.html.BODY\'>, \'BR\': <class \'gluon.html.BR\'>, \'BUTTON\': <class \'gluon.html.BUTTON\'>, ...}, layer=r\'C:\\Users\\Antonio\\Documents\\Servicio\\nuevo2\\web2py\\applications\\define_git\\models\\db.py\')'
p88
sS'func'
p89
S'restricted'
p90
sa(dp91
g66
S'C:\\Users\\Antonio\\Documents\\Servicio\\nuevo2\\web2py\\applications\\define_git\\models\\db.py'
p92
sg68
(dp93
S'username'
p94
S'undefined'
p95
sS'auth.define_tables'
p96
S'<bound method Auth.define_tables of <gluon.tools.Auth object>>'
p97
sS'builtinFalse'
p98
S'False'
p99
sS'auth'
p100
S'<gluon.tools.Auth object>'
p101
sS'signature'
p102
g95
ssg74
I61
sg75
(dp103
I64
S'mail = auth.settings.mailer #Ajustes del mail'
p104
sI65
S"mail.settings.server = 'smtp.gmail.com:587' #Servidor que se usar\xc3\xa1"
p105
sI56
S'auth = Auth(db)'
p106
sI57
S'service = Service()'
p107
sI58
S'plugins = PluginManager()'
p108
sI59
S''
sI60
S'## create all tables needed by auth if not custom tables'
p109
sI61
S'auth.define_tables(username=False, signature=False)'
p110
sI62
S''
sI63
S'## configure email'
p111
ssg87
S'()'
p112
sg89
S'<module>'
p113
sa(dp114
g66
S'C:\\Users\\Antonio\\Documents\\Servicio\\nuevo2\\web2py\\gluon\\tools.py'
p115
sg68
(dp116
S'builtinformat'
p117
S'<built-in function format>'
p118
ssg74
I2038
sg75
(dp119
I2033
S'                    *extra_fields,'
p120
sI2034
S'                    **dict('
p121
sI2035
S'                        migrate=self.__get_migrate(settings.table_user_name,'
p122
sI2036
S'                                                   migrate),'
p123
sI2037
S'                        fake_migrate=fake_migrate,'
p124
sI2038
S"                        format='%(first_name)s %(last_name)s (%(id)s)'))"
p125
sI2039
S"        reference_table_user = 'reference %s' % settings.table_user_name"
p126
sI2040
S'        if not settings.table_group_name in db.tables:'
p127
sI2041
S'            extra_fields = settings.extra_fields.get('
p128
sI2042
S'                settings.table_group_name, []) + signature_list'
p129
ssg87
S'(self=<gluon.tools.Auth object>, username=False, signature=False, migrate=True, fake_migrate=False)'
p130
sg89
S'define_tables'
p131
sa(dp132
g66
S'C:\\Users\\Antonio\\Documents\\Servicio\\nuevo2\\web2py\\gluon\\packages\\dal\\pydal\\base.py'
p133
sg68
(dp134
S'fields'
p135
S'(<pydal.objects.Field object>, <pydal.objects.Field object>, <pydal.objects.Field object>, <pydal.objects.Field object>, <pydal.objects.Field object>, <pydal.objects.Field object>, <pydal.objects.Field object>)'
p136
sS'self'
p137
S'<DAL uri="sqlite://storage.sqlite">'
p138
sS'args'
p139
S"{'fake_migrate': False, 'format': '%(first_name)s %(last_name)s (%(id)s)', 'migrate': True}"
p140
sS'tablename'
p141
S"'auth_user'"
p142
sS'table'
p143
g95
sS'self.lazy_define_table'
p144
S'<bound method DAL.lazy_define_table of <DAL uri="sqlite://storage.sqlite">>'
p145
ssg74
I817
sg75
(dp146
I812
S'                    % (tablename,invalid_args))'
p147
sI813
S'        if self._lazy_tables and tablename not in self._LAZY_TABLES:'
p148
sI814
S'            self._LAZY_TABLES[tablename] = (tablename,fields,args)'
p149
sI815
S'            table = None'
p150
sI816
S'        else:'
p151
sI817
S'            table = self.lazy_define_table(tablename,*fields,**args)'
p152
sI818
S'        if not tablename in self.tables:'
p153
sI819
S'            self.tables.append(tablename)'
p154
sI820
S'        return table'
p155
sI821
S''
ssg87
S'(self=<DAL uri="sqlite://storage.sqlite">, tablename=\'auth_user\', *fields=(<pydal.objects.Field object>, <pydal.objects.Field object>, <pydal.objects.Field object>, <pydal.objects.Field object>, <pydal.objects.Field object>, <pydal.objects.Field object>, <pydal.objects.Field object>), **args={\'fake_migrate\': False, \'format\': \'%(first_name)s %(last_name)s (%(id)s)\', \'migrate\': True})'
p156
sg89
S'define_table'
p157
sa(dp158
g66
S'C:\\Users\\Antonio\\Documents\\Servicio\\nuevo2\\web2py\\gluon\\packages\\dal\\pydal\\base.py'
p159
sg68
(dp160
S'polymodel'
p161
S'None'
p162
ssg74
I856
sg75
(dp163
I851
S'            try:'
p164
sI852
S'                GLOBAL_LOCKER.acquire()'
p165
sI853
S'                self._lastsql = self._adapter.create_table('
p166
sI854
S'                    table,migrate=migrate,'
p167
sI855
S'                    fake_migrate=fake_migrate,'
p168
sI856
S'                    polymodel=polymodel)'
p169
sI857
S'            finally:'
p170
sI858
S'                GLOBAL_LOCKER.release()'
p171
sI859
S'        else:'
p172
sI860
S'            table._dbt = None'
p173
ssg87
S'(self=<DAL uri="sqlite://storage.sqlite">, tablename=\'auth_user\', *fields=(<pydal.objects.Field object>, <pydal.objects.Field object>, <pydal.objects.Field object>, <pydal.objects.Field object>, <pydal.objects.Field object>, <pydal.objects.Field object>, <pydal.objects.Field object>), **args={\'fake_migrate\': False, \'format\': \'%(first_name)s %(last_name)s (%(id)s)\', \'migrate\': True})'
p174
sg89
S'lazy_define_table'
p175
sa(dp176
g66
S'C:\\Users\\Antonio\\Documents\\Servicio\\nuevo2\\web2py\\gluon\\packages\\dal\\pydal\\adapters\\base.py'
p177
sg68
(dp178
S'query'
p179
S"'CREATE TABLE auth_user(\\n    id INTEGER PRIMARY K...d_key CHAR(512),\\n    registration_id CHAR(512)\\n);'"
p180
sS'self'
p181
S'<pydal.adapters.sqlite.SQLiteAdapter object>'
p182
sS'table'
p183
S'<Table auth_user (id,first_name,last_name,email,...stration_key,reset_password_key,registration_id)>'
p184
sS'self.create_sequence_and_triggers'
p185
S'<bound method SQLiteAdapter.create_sequence_and_... of <pydal.adapters.sqlite.SQLiteAdapter object>>'
p186
ssg74
I463
sg75
(dp187
I458
S'            if table._dbt:'
p188
sI459
S"                self.log('timestamp: %s\\n%s\\n'"
p189
sI460
S'                         % (datetime.datetime.today().isoformat(),'
p190
sI461
S'                            query), table)'
p191
sI462
S'            if not fake_migrate:'
p192
sI463
S'                self.create_sequence_and_triggers(query,table)'
p193
sI464
S'                table._db.commit()'
p194
sI465
S'                # Postgres geom fields are added now,'
p195
sI466
S'                # after the table has been created'
p196
sI467
S'                for query in postcreation_fields:'
p197
ssg87
S'(self=<pydal.adapters.sqlite.SQLiteAdapter object>, table=<Table auth_user (id,first_name,last_name,email,...stration_key,reset_password_key,registration_id)>, migrate=True, fake_migrate=False, polymodel=None)'
p198
sg89
S'create_table'
p199
sa(dp200
g66
S'C:\\Users\\Antonio\\Documents\\Servicio\\nuevo2\\web2py\\gluon\\packages\\dal\\pydal\\adapters\\base.py'
p201
sg68
(dp202
S'query'
p203
S"'CREATE TABLE auth_user(\\n    id INTEGER PRIMARY K...d_key CHAR(512),\\n    registration_id CHAR(512)\\n);'"
p204
sS'self'
p205
S'<pydal.adapters.sqlite.SQLiteAdapter object>'
p206
sS'self.execute'
p207
S'<bound method SQLiteAdapter.execute of <pydal.adapters.sqlite.SQLiteAdapter object>>'
p208
ssg74
I1307
sg75
(dp209
I1302
S''
sI1303
S'    def constraint_name(self, table, fieldname):'
p210
sI1304
S"        return '%s_%s__constraint' % (table,fieldname)"
p211
sI1305
S''
sI1306
S'    def create_sequence_and_triggers(self, query, table, **args):'
p212
sI1307
S'        self.execute(query)'
p213
sI1308
S''
sI1309
S''
sI1310
S'    def log_execute(self, *a, **b):'
p214
sI1311
S'        if not self.connection: raise ValueError(a[0])'
p215
ssg87
S"(self=<pydal.adapters.sqlite.SQLiteAdapter object>, query='CREATE TABLE auth_user(\\n    id INTEGER PRIMARY K...d_key CHAR(512),\\n    registration_id CHAR(512)\\n);', table=<Table auth_user (id,first_name,last_name,email,...stration_key,reset_password_key,registration_id)>, **args={})"
p216
sg89
S'create_sequence_and_triggers'
p217
sa(dp218
g66
S'C:\\Users\\Antonio\\Documents\\Servicio\\nuevo2\\web2py\\gluon\\packages\\dal\\pydal\\adapters\\base.py'
p219
sg68
(dp220
S'a'
S"('CREATE TABLE auth_user(\\n    id INTEGER PRIMARY K...d_key CHAR(512),\\n    registration_id CHAR(512)\\n);',)"
p221
sS'self'
p222
S'<pydal.adapters.sqlite.SQLiteAdapter object>'
p223
sS'b'
g21
sS'self.log_execute'
p224
S'<bound method SQLiteAdapter.log_execute of <pydal.adapters.sqlite.SQLiteAdapter object>>'
p225
ssg74
I1326
sg75
(dp226
I1321
S'        self.db._timings.append((command,time.time()-t0))'
p227
sI1322
S'        del self.db._timings[:-TIMINGSSIZE]'
p228
sI1323
S'        return ret'
p229
sI1324
S''
sI1325
S'    def execute(self, *a, **b):'
p230
sI1326
S'        return self.log_execute(*a, **b)'
p231
sI1327
S''
sI1328
S'    def represent(self, obj, fieldtype):'
p232
sI1329
S'        field_is_type = fieldtype.startswith'
p233
sI1330
S'        if isinstance(obj, CALLABLETYPES):'
p234
ssg87
S"(self=<pydal.adapters.sqlite.SQLiteAdapter object>, *a=('CREATE TABLE auth_user(\\n    id INTEGER PRIMARY K...d_key CHAR(512),\\n    registration_id CHAR(512)\\n);',), **b={})"
p235
sg89
S'execute'
p236
sa(dp237
g66
S'C:\\Users\\Antonio\\Documents\\Servicio\\nuevo2\\web2py\\gluon\\packages\\dal\\pydal\\adapters\\base.py'
p238
sg68
(dp239
S'a'
S"('CREATE TABLE auth_user(\\n    id INTEGER PRIMARY K...d_key CHAR(512),\\n    registration_id CHAR(512)\\n);',)"
p240
sS'b'
g21
sS'self'
p241
S'<pydal.adapters.sqlite.SQLiteAdapter object>'
p242
sS'ret'
p243
g95
sS'self.cursor'
p244
S'<sqlite3.Cursor object>'
p245
sS'command'
p246
S"'CREATE TABLE auth_user(\\n    id INTEGER PRIMARY K...d_key CHAR(512),\\n    registration_id CHAR(512)\\n);'"
p247
sS'self.cursor.execute'
p248
S'<built-in method execute of sqlite3.Cursor object>'
p249
ssg74
I1320
sg75
(dp250
I1315
S'            command = self.filter_sql_command(command)'
p251
sI1316
S'        if self.db._debug:'
p252
sI1317
S"            self.db.logger.debug('SQL: %s' % command)"
p253
sI1318
S'        self.db._lastsql = command'
p254
sI1319
S'        t0 = time.time()'
p255
sI1320
S'        ret = self.cursor.execute(command, *a[1:], **b)'
p256
sI1321
S'        self.db._timings.append((command,time.time()-t0))'
p257
sI1322
S'        del self.db._timings[:-TIMINGSSIZE]'
p258
sI1323
S'        return ret'
p259
sI1324
S''
ssg87
S"(self=<pydal.adapters.sqlite.SQLiteAdapter object>, *a=('CREATE TABLE auth_user(\\n    id INTEGER PRIMARY K...d_key CHAR(512),\\n    registration_id CHAR(512)\\n);',), **b={})"
p260
sg89
S'log_execute'
p261
sasS'pyver'
p262
S'Python 2.7.7: c:\\python27\\python.exe (prefix: c:\\python27)'
p263
sS'session'
p264
g61
(S's;\x01\x00\x00<div><table><tr><td style="font-weight:bold;vertical-align:top;">last_orderby</td><td style="vertical-align:top;">:</td><td><div>None</div></td></tr><tr><td style="font-weight:bold;vertical-align:top;">last_query</td><td style="vertical-align:top;">:</td><td><div>db.definicion.id&gt;0</div></td></tr></table></div>'
tRp265
sS'etype'
p266
S"<class 'sqlite3.OperationalError'>"
p267
sS'date'
p268
S'Tue May 17 02:15:08 2016'
p269
sS'response'
p270
g61
(S'sH\x18\x00\x00<div><table><tr><td style="font-weight:bold;vertical-align:top;">body</td><td style="vertical-align:top;">:</td><td><div>&lt;cStringIO.StringO object at 0x07F99840&gt;</div></td></tr><tr><td style="font-weight:bold;vertical-align:top;">cookies</td><td style="vertical-align:top;">:</td><td><div><table><tr><td style="font-weight:bold;vertical-align:top;">session_id_define_git</td><td style="vertical-align:top;">:</td><td><div>127.0.0.1-20c0d5e3-e6c5-441d-b91f-8cd5764b528c<table><tr><td style="font-weight:bold;vertical-align:top;">comment</td><td style="vertical-align:top;">:</td><td><div></div></td></tr><tr><td style="font-weight:bold;vertical-align:top;">domain</td><td style="vertical-align:top;">:</td><td><div></div></td></tr><tr><td style="font-weight:bold;vertical-align:top;">expires</td><td style="vertical-align:top;">:</td><td><div></div></td></tr><tr><td style="font-weight:bold;vertical-align:top;">httponly</td><td style="vertical-align:top;">:</td><td><div></div></td></tr><tr><td style="font-weight:bold;vertical-align:top;">max-age</td><td style="vertical-align:top;">:</td><td><div></div></td></tr><tr><td style="font-weight:bold;vertical-align:top;">path</td><td style="vertical-align:top;">:</td><td><div>/</div></td></tr><tr><td style="font-weight:bold;vertical-align:top;">secure</td><td style="vertical-align:top;">:</td><td><div></div></td></tr><tr><td style="font-weight:bold;vertical-align:top;">version</td><td style="vertical-align:top;">:</td><td><div></div></td></tr></table></div></td></tr></table></div></td></tr><tr><td style="font-weight:bold;vertical-align:top;">delimiters</td><td style="vertical-align:top;">:</td><td><div><table><tr><td><div>{{</div></td></tr><tr><td><div>}}</div></td></tr></table></div></td></tr><tr><td style="font-weight:bold;vertical-align:top;">files</td><td style="vertical-align:top;">:</td><td><div><table></table></div></td></tr><tr><td style="font-weight:bold;vertical-align:top;">flash</td><td style="vertical-align:top;">:</td><td><div></div></td></tr><tr><td style="font-weight:bold;vertical-align:top;">form_label_separator</td><td style="vertical-align:top;">:</td><td><div></div></td></tr><tr><td style="font-weight:bold;vertical-align:top;">formstyle</td><td style="vertical-align:top;">:</td><td><div>bootstrap3_inline</div></td></tr><tr><td style="font-weight:bold;vertical-align:top;">generic_patterns</td><td style="vertical-align:top;">:</td><td><div><table><tr><td><div>*</div></td></tr></table></div></td></tr><tr><td style="font-weight:bold;vertical-align:top;">headers</td><td style="vertical-align:top;">:</td><td><div><table><tr><td style="font-weight:bold;vertical-align:top;">X-Powered-By</td><td style="vertical-align:top;">:</td><td><div>web2py</div></td></tr></table></div></td></tr><tr><td style="font-weight:bold;vertical-align:top;">menu</td><td style="vertical-align:top;">:</td><td><div><table></table></div></td></tr><tr><td style="font-weight:bold;vertical-align:top;">meta</td><td style="vertical-align:top;">:</td><td><div><table></table></div></td></tr><tr><td style="font-weight:bold;vertical-align:top;">models_to_run</td><td style="vertical-align:top;">:</td><td><div><table><tr><td><div>^\\w+\\.py$</div></td></tr><tr><td><div>^appadmin/\\w+\\.py$</div></td></tr><tr><td><div>^appadmin/index/\\w+\\.py$</div></td></tr></table></div></td></tr><tr><td style="font-weight:bold;vertical-align:top;">postprocessing</td><td style="vertical-align:top;">:</td><td><div><table></table></div></td></tr><tr><td style="font-weight:bold;vertical-align:top;">session_client</td><td style="vertical-align:top;">:</td><td><div>127.0.0.1</div></td></tr><tr><td style="font-weight:bold;vertical-align:top;">session_cookie_compression_level</td><td style="vertical-align:top;">:</td><td><div>None</div></td></tr><tr><td style="font-weight:bold;vertical-align:top;">session_cookie_expires</td><td style="vertical-align:top;">:</td><td><div>None</div></td></tr><tr><td style="font-weight:bold;vertical-align:top;">session_cookie_key</td><td style="vertical-align:top;">:</td><td><div>None</div></td></tr><tr><td style="font-weight:bold;vertical-align:top;">session_data_name</td><td style="vertical-align:top;">:</td><td><div>session_data_define_git</div></td></tr><tr><td style="font-weight:bold;vertical-align:top;">session_file</td><td style="vertical-align:top;">:</td><td><div>&lt;open file &#x27;C:\\\\Users\\\\Antonio\\\\Documents\\\\Servicio\\\\nuevo2\\\\web2py\\\\applications\\\\define_git\\\\sessions\\\\009\\\\127\\\\127.0.0.1-20c0d5e3-e6c5-441d-b91f-8cd5764b528c&#x27;, mode &#x27;rb+&#x27; at 0x080BBC80&gt;</div></td></tr><tr><td style="font-weight:bold;vertical-align:top;">session_filename</td><td style="vertical-align:top;">:</td><td><div>C:\\Users\\Antonio\\Documents\\Servicio\\nuevo2\\web2py\\applications\\define_git\\sessions\\127.0.0.1-20c0d5e3-e6c5-441d-b91f-8cd5764b528c</div></td></tr><tr><td style="font-weight:bold;vertical-align:top;">session_hash</td><td style="vertical-align:top;">:</td><td><div>58b0fd75a56d937aa64fadcfaa44d5e1</div></td></tr><tr><td style="font-weight:bold;vertical-align:top;">session_id</td><td style="vertical-align:top;">:</td><td><div>127.0.0.1-20c0d5e3-e6c5-441d-b91f-8cd5764b528c</div></td></tr><tr><td style="font-weight:bold;vertical-align:top;">session_id_name</td><td style="vertical-align:top;">:</td><td><div>session_id_define_git</div></td></tr><tr><td style="font-weight:bold;vertical-align:top;">session_locked</td><td style="vertical-align:top;">:</td><td><div>True</div></td></tr><tr><td style="font-weight:bold;vertical-align:top;">session_masterapp</td><td style="vertical-align:top;">:</td><td><div>define_git</div></td></tr><tr><td style="font-weight:bold;vertical-align:top;">session_new</td><td style="vertical-align:top;">:</td><td><div>False</div></td></tr><tr><td style="font-weight:bold;vertical-align:top;">session_storage_type</td><td style="vertical-align:top;">:</td><td><div>file</div></td></tr><tr><td style="font-weight:bold;vertical-align:top;">status</td><td style="vertical-align:top;">:</td><td><div>200</div></td></tr><tr><td style="font-weight:bold;vertical-align:top;">view</td><td style="vertical-align:top;">:</td><td><div>appadmin/index.html</div></td></tr></table></div>'
tRp271
sS'locals'
p272
(dp273
S'a'
S"('CREATE TABLE auth_user(\\n    id INTEGER PRIMARY K...d_key CHAR(512),\\n    registration_id CHAR(512)\\n);',)"
p274
sS'self'
p275
S'<pydal.adapters.sqlite.SQLiteAdapter object>'
p276
sS'b'
g21
sS'command'
p277
S"'CREATE TABLE auth_user(\\n    id INTEGER PRIMARY K...d_key CHAR(512),\\n    registration_id CHAR(512)\\n);'"
p278
sS't0'
p279
S'1463469308.507'
p280
sssS'traceback'
p281
S'Traceback (most recent call last):\n  File "C:\\Users\\Antonio\\Documents\\Servicio\\nuevo2\\web2py\\gluon\\restricted.py", line 227, in restricted\n    exec ccode in environment\n  File "C:\\Users\\Antonio\\Documents\\Servicio\\nuevo2\\web2py\\applications\\define_git\\models\\db.py", line 61, in <module>\n    auth.define_tables(username=False, signature=False)\n  File "C:\\Users\\Antonio\\Documents\\Servicio\\nuevo2\\web2py\\gluon\\tools.py", line 2038, in define_tables\n    format=\'%(first_name)s %(last_name)s (%(id)s)\'))\n  File "C:\\Users\\Antonio\\Documents\\Servicio\\nuevo2\\web2py\\gluon\\packages\\dal\\pydal\\base.py", line 817, in define_table\n    table = self.lazy_define_table(tablename,*fields,**args)\n  File "C:\\Users\\Antonio\\Documents\\Servicio\\nuevo2\\web2py\\gluon\\packages\\dal\\pydal\\base.py", line 856, in lazy_define_table\n    polymodel=polymodel)\n  File "C:\\Users\\Antonio\\Documents\\Servicio\\nuevo2\\web2py\\gluon\\packages\\dal\\pydal\\adapters\\base.py", line 463, in create_table\n    self.create_sequence_and_triggers(query,table)\n  File "C:\\Users\\Antonio\\Documents\\Servicio\\nuevo2\\web2py\\gluon\\packages\\dal\\pydal\\adapters\\base.py", line 1307, in create_sequence_and_triggers\n    self.execute(query)\n  File "C:\\Users\\Antonio\\Documents\\Servicio\\nuevo2\\web2py\\gluon\\packages\\dal\\pydal\\adapters\\base.py", line 1326, in execute\n    return self.log_execute(*a, **b)\n  File "C:\\Users\\Antonio\\Documents\\Servicio\\nuevo2\\web2py\\gluon\\packages\\dal\\pydal\\adapters\\base.py", line 1320, in log_execute\n    ret = self.cursor.execute(command, *a[1:], **b)\nOperationalError: table auth_user already exists\n'
p282
s.